ARM GAS  C:\Users\abhim\AppData\Local\Temp\ccE6NQYk.s 			page 1


   1              		.syntax unified
   2              		.cpu cortex-m3
   3              		.fpu softvfp
   4              		.eabi_attribute 20, 1
   5              		.eabi_attribute 21, 1
   6              		.eabi_attribute 23, 3
   7              		.eabi_attribute 24, 1
   8              		.eabi_attribute 25, 1
   9              		.eabi_attribute 26, 1
  10              		.eabi_attribute 30, 1
  11              		.eabi_attribute 34, 1
  12              		.eabi_attribute 18, 4
  13              		.thumb
  14              		.syntax unified
  15              		.file	"sc_joystick_type.c"
  16              		.text
  17              	.Ltext0:
  18              		.cfi_sections	.debug_frame
  19              		.section	.text.SC_JOYSTICK_driverIn,"ax",%progbits
  20              		.align	2
  21              		.global	SC_JOYSTICK_driverIn
  22              		.thumb
  23              		.thumb_func
  24              		.type	SC_JOYSTICK_driverIn, %function
  25              	SC_JOYSTICK_driverIn:
  26              	.LFB110:
  27              		.file 1 "source\\rte\\sc_joystick_type.c"
   1:source\rte/sc_joystick_type.c **** /*
   2:source\rte/sc_joystick_type.c ****  * Filename: sc_joystick_type.c
   3:source\rte/sc_joystick_type.c ****  *
   4:source\rte/sc_joystick_type.c ****  * Author: Autogenerated by H-DA RTE Generator, (c) Prof. Fromm
   5:source\rte/sc_joystick_type.c ****  *
   6:source\rte/sc_joystick_type.c ****  * description: signal is updated every 10ms and is used by the control logic to compute the vehicl
   7:source\rte/sc_joystick_type.c ****  * name: sc_joystick
   8:source\rte/sc_joystick_type.c ****  * shortname: joystick
   9:source\rte/sc_joystick_type.c ****  *
  10:source\rte/sc_joystick_type.c ****  */
  11:source\rte/sc_joystick_type.c **** 
  12:source\rte/sc_joystick_type.c **** #include "project.h"
  13:source\rte/sc_joystick_type.c **** #include "global.h"
  14:source\rte/sc_joystick_type.c **** #include "rte.h"
  15:source\rte/sc_joystick_type.c **** #include "rte_types.h"
  16:source\rte/sc_joystick_type.c **** #include "sc_joystick_type.h"
  17:source\rte/sc_joystick_type.c **** 
  18:source\rte/sc_joystick_type.c **** 
  19:source\rte/sc_joystick_type.c **** 
  20:source\rte/sc_joystick_type.c **** /* USER CODE START SC_JOYSTICK_INCLUDE */
  21:source\rte/sc_joystick_type.c **** 
  22:source\rte/sc_joystick_type.c **** /* USER CODE END SC_JOYSTICK_INCLUDE */
  23:source\rte/sc_joystick_type.c **** 
  24:source\rte/sc_joystick_type.c **** 
  25:source\rte/sc_joystick_type.c **** 
  26:source\rte/sc_joystick_type.c **** 
  27:source\rte/sc_joystick_type.c **** /* USER CODE START SC_JOYSTICK_USERDEFINITIONS */
  28:source\rte/sc_joystick_type.c **** 
  29:source\rte/sc_joystick_type.c **** /* USER CODE END SC_JOYSTICK_USERDEFINITIONS */
  30:source\rte/sc_joystick_type.c **** 
ARM GAS  C:\Users\abhim\AppData\Local\Temp\ccE6NQYk.s 			page 2


  31:source\rte/sc_joystick_type.c **** 
  32:source\rte/sc_joystick_type.c **** /*****************************************************************************************
  33:source\rte/sc_joystick_type.c ****  *************** Port Wrapper Implementation for SC_JOYSTICK signal  ****************
  34:source\rte/sc_joystick_type.c ****  *****************************************************************************************/
  35:source\rte/sc_joystick_type.c ****  
  36:source\rte/sc_joystick_type.c ****  
  37:source\rte/sc_joystick_type.c **** 
  38:source\rte/sc_joystick_type.c **** /**
  39:source\rte/sc_joystick_type.c ****  * Default IN driver API
  40:source\rte/sc_joystick_type.c ****  */
  41:source\rte/sc_joystick_type.c **** inline RC_t SC_JOYSTICK_driverIn(SC_JOYSTICK_data_t *const data)
  42:source\rte/sc_joystick_type.c **** {
  28              		.loc 1 42 0
  29              		.cfi_startproc
  30              		@ args = 0, pretend = 0, frame = 8
  31              		@ frame_needed = 0, uses_anonymous_args = 0
  32              	.LVL0:
  33 0000 10B5     		push	{r4, lr}
  34              		.cfi_def_cfa_offset 8
  35              		.cfi_offset 4, -8
  36              		.cfi_offset 14, -4
  37 0002 82B0     		sub	sp, sp, #8
  38              		.cfi_def_cfa_offset 16
  39 0004 0446     		mov	r4, r0
  43:source\rte/sc_joystick_type.c **** 	/* USER CODE START driverInSC_JOYSTICK */
  44:source\rte/sc_joystick_type.c ****     sint8_t posX;
  45:source\rte/sc_joystick_type.c ****     sint8_t posY;
  46:source\rte/sc_joystick_type.c ****     JOYSTICK_Init();
  40              		.loc 1 46 0
  41 0006 FFF7FEFF 		bl	JOYSTICK_Init
  42              	.LVL1:
  47:source\rte/sc_joystick_type.c ****     RC_t result = JOYSTICK_ReadPosition(&posX,&posY);
  43              		.loc 1 47 0
  44 000a 0DF10601 		add	r1, sp, #6
  45 000e 0DF10700 		add	r0, sp, #7
  46 0012 FFF7FEFF 		bl	JOYSTICK_ReadPosition
  47              	.LVL2:
  48:source\rte/sc_joystick_type.c ****     data->x = posX;
  48              		.loc 1 48 0
  49 0016 9DF90730 		ldrsb	r3, [sp, #7]
  50 001a 2370     		strb	r3, [r4]
  49:source\rte/sc_joystick_type.c ****     data->y = posY;
  51              		.loc 1 49 0
  52 001c 9DF80630 		ldrb	r3, [sp, #6]	@ zero_extendqisi2
  53 0020 6370     		strb	r3, [r4, #1]
  50:source\rte/sc_joystick_type.c **** 
  51:source\rte/sc_joystick_type.c **** 	return RC_SUCCESS;
  52:source\rte/sc_joystick_type.c **** 	/* USER CODE END driverInSC_JOYSTICK */
  53:source\rte/sc_joystick_type.c **** }
  54              		.loc 1 53 0
  55 0022 0020     		movs	r0, #0
  56 0024 02B0     		add	sp, sp, #8
  57              		.cfi_def_cfa_offset 8
  58              		@ sp needed
  59 0026 10BD     		pop	{r4, pc}
  60              		.cfi_endproc
  61              	.LFE110:
ARM GAS  C:\Users\abhim\AppData\Local\Temp\ccE6NQYk.s 			page 3


  62              		.size	SC_JOYSTICK_driverIn, .-SC_JOYSTICK_driverIn
  63              		.text
  64              	.Letext0:
  65              		.file 2 "c:\\program files (x86)\\cypress\\psoc creator\\4.4\\psoc creator\\import\\gnu\\arm\\5.4.
  66              		.file 3 "c:\\program files (x86)\\cypress\\psoc creator\\4.4\\psoc creator\\import\\gnu\\arm\\5.4.
  67              		.file 4 "Generated_Source\\PSoC5/ErikaOS_common_ee_types.inc"
  68              		.file 5 "Generated_Source\\PSoC5/ErikaOS_cortex_mx_ee_cpu.inc"
  69              		.file 6 ".\\source\\bsw/global.h"
  70              		.file 7 "source\\rte\\sc_joystick_type.h"
  71              		.file 8 "Generated_Source\\PSoC5/ErikaOS_ee_oo_intfunc.inc"
  72              		.file 9 "Generated_Source\\PSoC5/ErikaOS_cortex_mx_ee_context.inc"
  73              		.file 10 "Generated_Source\\PSoC5/ErikaOS_common_ee_primitives.inc"
  74              		.file 11 "Generated_Source\\PSoC5/core_cm3.h"
  75              		.file 12 ".\\source\\bsw/joystick.h"