ARM GAS  C:\Users\abhim\AppData\Local\Temp\ccpUSvjh.s 			page 1


   1              		.syntax unified
   2              		.cpu cortex-m3
   3              		.fpu softvfp
   4              		.eabi_attribute 20, 1
   5              		.eabi_attribute 21, 1
   6              		.eabi_attribute 23, 3
   7              		.eabi_attribute 24, 1
   8              		.eabi_attribute 25, 1
   9              		.eabi_attribute 26, 1
  10              		.eabi_attribute 30, 1
  11              		.eabi_attribute 34, 1
  12              		.eabi_attribute 18, 4
  13              		.thumb
  14              		.syntax unified
  15              		.file	"swc_engine_control.c"
  16              		.text
  17              	.Ltext0:
  18              		.cfi_sections	.debug_frame
  19              		.section	.text.ENGINE_CONTROL_Engine_Control_setEngine_run,"ax",%progbits
  20              		.align	2
  21              		.global	ENGINE_CONTROL_Engine_Control_setEngine_run
  22              		.thumb
  23              		.thumb_func
  24              		.type	ENGINE_CONTROL_Engine_Control_setEngine_run, %function
  25              	ENGINE_CONTROL_Engine_Control_setEngine_run:
  26              	.LFB132:
  27              		.file 1 "source\\bsw\\swc_engine_control.c"
   1:source\bsw/swc_engine_control.c **** /*
   2:source\bsw/swc_engine_control.c ****  * Filename: swc_engine_control.c
   3:source\bsw/swc_engine_control.c ****  *
   4:source\bsw/swc_engine_control.c ****  * Author: Autogenerated by H-DA RTE Generator, (c) Prof. Fromm
   5:source\bsw/swc_engine_control.c ****  *
   6:source\bsw/swc_engine_control.c ****  * description: Software component
   7:source\bsw/swc_engine_control.c ****  * name: swc_engine_control
   8:source\bsw/swc_engine_control.c ****  * shortname: engine_control
   9:source\bsw/swc_engine_control.c ****  *
  10:source\bsw/swc_engine_control.c ****  */
  11:source\bsw/swc_engine_control.c **** 
  12:source\bsw/swc_engine_control.c **** #include "project.h"
  13:source\bsw/swc_engine_control.c **** #include "global.h"
  14:source\bsw/swc_engine_control.c **** #include "rte.h"
  15:source\bsw/swc_engine_control.c **** #include "rte_types.h"
  16:source\bsw/swc_engine_control.c **** #include "swc_engine_control.h"
  17:source\bsw/swc_engine_control.c **** 
  18:source\bsw/swc_engine_control.c **** 
  19:source\bsw/swc_engine_control.c **** /* USER CODE START SWC_ENGINE_CONTROL_INCLUDE */
  20:source\bsw/swc_engine_control.c **** 
  21:source\bsw/swc_engine_control.c **** /* USER CODE END SWC_ENGINE_CONTROL_INCLUDE */
  22:source\bsw/swc_engine_control.c **** 
  23:source\bsw/swc_engine_control.c **** 
  24:source\bsw/swc_engine_control.c **** #include "sp_signalpool.h"
  25:source\bsw/swc_engine_control.c **** 
  26:source\bsw/swc_engine_control.c **** /* USER CODE START SWC_ENGINE_CONTROL_USERDEFINITIONS */
  27:source\bsw/swc_engine_control.c **** 
  28:source\bsw/swc_engine_control.c **** /* USER CODE END SWC_ENGINE_CONTROL_USERDEFINITIONS */
  29:source\bsw/swc_engine_control.c **** 
  30:source\bsw/swc_engine_control.c **** 
ARM GAS  C:\Users\abhim\AppData\Local\Temp\ccpUSvjh.s 			page 2


  31:source\bsw/swc_engine_control.c **** 
  32:source\bsw/swc_engine_control.c **** /*
  33:source\bsw/swc_engine_control.c ****  * component: swc_engine_control
  34:source\bsw/swc_engine_control.c ****  * cycletime: 100
  35:source\bsw/swc_engine_control.c ****  * description: Runnable
  36:source\bsw/swc_engine_control.c ****  * events: 
  37:source\bsw/swc_engine_control.c ****  * name: ENGINE_CONTROL_Engine_Control_setEngine_run
  38:source\bsw/swc_engine_control.c ****  * shortname: Engine_Control_setEngine
  39:source\bsw/swc_engine_control.c ****  * signalIN: so_speed
  40:source\bsw/swc_engine_control.c ****  * signalOUT: so_enginesignal
  41:source\bsw/swc_engine_control.c ****  * task: tsk_IO
  42:source\bsw/swc_engine_control.c ****  */
  43:source\bsw/swc_engine_control.c **** void ENGINE_CONTROL_Engine_Control_setEngine_run(RTE_event ev){
  28              		.loc 1 43 0
  29              		.cfi_startproc
  30              		@ args = 0, pretend = 0, frame = 0
  31              		@ frame_needed = 0, uses_anonymous_args = 0
  32              	.LVL0:
  33 0000 38B5     		push	{r3, r4, r5, lr}
  34              		.cfi_def_cfa_offset 16
  35              		.cfi_offset 3, -16
  36              		.cfi_offset 4, -12
  37              		.cfi_offset 5, -8
  38              		.cfi_offset 14, -4
  39              	.LVL1:
  40              	.LBB11:
  41              	.LBB12:
  42              		.file 2 ".\\source\\rte/sc_speed.h"
   1:.\source\rte/sc_speed.h **** 
   2:.\source\rte/sc_speed.h **** 
   3:.\source\rte/sc_speed.h **** /**
   4:.\source\rte/sc_speed.h ****  *  file    SC_SPEED_signal.h
   5:.\source\rte/sc_speed.h ****  *
   6:.\source\rte/sc_speed.h ****  *  brief   signal base class for signal sc_speed
   7:.\source\rte/sc_speed.h ****  *
   8:.\source\rte/sc_speed.h ****  *  author  Autogenerated, Peter Fromm       <peter.fromm@h-da.de>
   9:.\source\rte/sc_speed.h ****  *
  10:.\source\rte/sc_speed.h ****  * description: signal is updated every time the control logic (run_calcControl) processes new joys
  11:.\source\rte/sc_speed.h ****  * name: sc_speed
  12:.\source\rte/sc_speed.h ****  * shortname: speed
  13:.\source\rte/sc_speed.h ****  *
  14:.\source\rte/sc_speed.h ****  */
  15:.\source\rte/sc_speed.h **** 
  16:.\source\rte/sc_speed.h **** 
  17:.\source\rte/sc_speed.h **** 
  18:.\source\rte/sc_speed.h **** #ifndef SC_SPEED_SIGNAL_H_INCLUDED
  19:.\source\rte/sc_speed.h **** #define SC_SPEED_SIGNAL_H_INCLUDED
  20:.\source\rte/sc_speed.h **** 
  21:.\source\rte/sc_speed.h **** /*================================================[ public includes  ]=============================
  22:.\source\rte/sc_speed.h **** #include "global.h"
  23:.\source\rte/sc_speed.h **** #include "project.h"
  24:.\source\rte/sc_speed.h **** #include "rte.h"
  25:.\source\rte/sc_speed.h **** #include "rte_types.h"
  26:.\source\rte/sc_speed.h **** 
  27:.\source\rte/sc_speed.h **** #include "sc_speed_type.h"
  28:.\source\rte/sc_speed.h **** 
  29:.\source\rte/sc_speed.h **** 
ARM GAS  C:\Users\abhim\AppData\Local\Temp\ccpUSvjh.s 			page 3


  30:.\source\rte/sc_speed.h **** /**************************************************************************************************
  31:.\source\rte/sc_speed.h **** /* The driver API block																						*/
  32:.\source\rte/sc_speed.h **** /**************************************************************************************************
  33:.\source\rte/sc_speed.h ****                                                                                                    
  34:.\source\rte/sc_speed.h **** /**
  35:.\source\rte/sc_speed.h ****  *  Definition of function types for driver interfaces.
  36:.\source\rte/sc_speed.h ****  *  I-Port
  37:.\source\rte/sc_speed.h ****  */
  38:.\source\rte/sc_speed.h **** typedef RC_t (*SC_SPEED_driverIn_t)(SC_SPEED_data_t * const);
  39:.\source\rte/sc_speed.h **** 
  40:.\source\rte/sc_speed.h **** /**
  41:.\source\rte/sc_speed.h ****  *  Definition of function types for driver interfaces.
  42:.\source\rte/sc_speed.h ****  *  O-Port
  43:.\source\rte/sc_speed.h ****  */
  44:.\source\rte/sc_speed.h **** typedef RC_t (*SC_SPEED_driverOut_t)( const SC_SPEED_data_t * const);
  45:.\source\rte/sc_speed.h **** 
  46:.\source\rte/sc_speed.h **** 
  47:.\source\rte/sc_speed.h **** /**************************************************************************************************
  48:.\source\rte/sc_speed.h **** /* The signal configuration API block																				*/
  49:.\source\rte/sc_speed.h **** /**************************************************************************************************
  50:.\source\rte/sc_speed.h **** 
  51:.\source\rte/sc_speed.h **** /**
  52:.\source\rte/sc_speed.h ****  * Instances of the struct SC_SPEED_cfg_t represent the signal object configuration.
  53:.\source\rte/sc_speed.h ****  */
  54:.\source\rte/sc_speed.h **** struct SC_SPEED_cfg_s
  55:.\source\rte/sc_speed.h **** {
  56:.\source\rte/sc_speed.h ****     /**
  57:.\source\rte/sc_speed.h ****      * Function pointer to the input driver
  58:.\source\rte/sc_speed.h ****      */
  59:.\source\rte/sc_speed.h ****     SC_SPEED_driverIn_t const inDriver;
  60:.\source\rte/sc_speed.h **** 
  61:.\source\rte/sc_speed.h ****     /**
  62:.\source\rte/sc_speed.h ****      * Function pointer to the output driver table
  63:.\source\rte/sc_speed.h ****      */
  64:.\source\rte/sc_speed.h ****    SC_SPEED_driverOut_t const outDriver;
  65:.\source\rte/sc_speed.h ****    
  66:.\source\rte/sc_speed.h ****     /**
  67:.\source\rte/sc_speed.h ****      * Event onUpdate
  68:.\source\rte/sc_speed.h ****      */
  69:.\source\rte/sc_speed.h ****     EventMaskType const evOnUpdate;
  70:.\source\rte/sc_speed.h ****     
  71:.\source\rte/sc_speed.h ****     
  72:.\source\rte/sc_speed.h ****     /**
  73:.\source\rte/sc_speed.h ****      * Event onError
  74:.\source\rte/sc_speed.h ****      */
  75:.\source\rte/sc_speed.h ****     EventMaskType const evOnError;
  76:.\source\rte/sc_speed.h ****     
  77:.\source\rte/sc_speed.h ****     /**
  78:.\source\rte/sc_speed.h ****      * Task Count onUpdate
  79:.\source\rte/sc_speed.h ****      */
  80:.\source\rte/sc_speed.h ****     size_t const onUpdateTaskCount;
  81:.\source\rte/sc_speed.h **** 
  82:.\source\rte/sc_speed.h ****     /**
  83:.\source\rte/sc_speed.h ****      * Task List onUpdate
  84:.\source\rte/sc_speed.h ****      */
  85:.\source\rte/sc_speed.h ****     TaskTypeArray* const onUpdateTasks;
  86:.\source\rte/sc_speed.h ****     
ARM GAS  C:\Users\abhim\AppData\Local\Temp\ccpUSvjh.s 			page 4


  87:.\source\rte/sc_speed.h ****     /**
  88:.\source\rte/sc_speed.h ****      * Task Count onError
  89:.\source\rte/sc_speed.h ****      */
  90:.\source\rte/sc_speed.h ****     size_t const onErrorTaskCount;
  91:.\source\rte/sc_speed.h **** 
  92:.\source\rte/sc_speed.h ****     /**
  93:.\source\rte/sc_speed.h ****      * Task List onError
  94:.\source\rte/sc_speed.h ****      */
  95:.\source\rte/sc_speed.h ****     TaskTypeArray* const onErrorTasks;
  96:.\source\rte/sc_speed.h **** 	
  97:.\source\rte/sc_speed.h **** 	
  98:.\source\rte/sc_speed.h **** 	/**
  99:.\source\rte/sc_speed.h **** 	 * Ressourse is active? We need an additional boolean as a ressource value 0 is valid.
 100:.\source\rte/sc_speed.h **** 	 */
 101:.\source\rte/sc_speed.h **** 	 boolean_t const resourceActive;
 102:.\source\rte/sc_speed.h **** 	 
 103:.\source\rte/sc_speed.h **** 	/**
 104:.\source\rte/sc_speed.h **** 	 * Ressourse 
 105:.\source\rte/sc_speed.h **** 	 */
 106:.\source\rte/sc_speed.h **** 	 ResourceType const resource;
 107:.\source\rte/sc_speed.h **** 
 108:.\source\rte/sc_speed.h **** };                                                                                                 
 109:.\source\rte/sc_speed.h **** typedef const struct SC_SPEED_cfg_s SC_SPEED_cfg_t;
 110:.\source\rte/sc_speed.h ****                               
 111:.\source\rte/sc_speed.h **** /**************************************************************************************************
 112:.\source\rte/sc_speed.h **** /* The data interface block																							*/
 113:.\source\rte/sc_speed.h **** /**************************************************************************************************
 114:.\source\rte/sc_speed.h **** 
 115:.\source\rte/sc_speed.h ****                                                                                                    
 116:.\source\rte/sc_speed.h **** 							  
 117:.\source\rte/sc_speed.h **** /**
 118:.\source\rte/sc_speed.h ****  * Instances of the struct SC_SPEED_t represent the signal objects.
 119:.\source\rte/sc_speed.h ****  * A signal object contains the current application value 'value' as well as relevant meta data.
 120:.\source\rte/sc_speed.h ****  */
 121:.\source\rte/sc_speed.h **** struct SC_SPEED_s
 122:.\source\rte/sc_speed.h **** {                                                                                                  
 123:.\source\rte/sc_speed.h **** 
 124:.\source\rte/sc_speed.h **** 	/**
 125:.\source\rte/sc_speed.h **** 	 * Data buffer for the application value
 126:.\source\rte/sc_speed.h **** 	 */
 127:.\source\rte/sc_speed.h ****     SC_SPEED_data_t value;
 128:.\source\rte/sc_speed.h **** 
 129:.\source\rte/sc_speed.h ****     /**
 130:.\source\rte/sc_speed.h ****      * Current signal status
 131:.\source\rte/sc_speed.h ****      */
 132:.\source\rte/sc_speed.h ****     RTE_signalStatus_t status;
 133:.\source\rte/sc_speed.h **** 
 134:.\source\rte/sc_speed.h ****     /**
 135:.\source\rte/sc_speed.h ****      * Current age of the signal (in calling cycles)
 136:.\source\rte/sc_speed.h ****      */
 137:.\source\rte/sc_speed.h ****     uint32_t age;
 138:.\source\rte/sc_speed.h **** 
 139:.\source\rte/sc_speed.h ****     /**
 140:.\source\rte/sc_speed.h ****      * Pointer to the signal configuration
 141:.\source\rte/sc_speed.h ****      */
 142:.\source\rte/sc_speed.h **** 	const SC_SPEED_cfg_t * const    pSigCfg;
 143:.\source\rte/sc_speed.h **** 
ARM GAS  C:\Users\abhim\AppData\Local\Temp\ccpUSvjh.s 			page 5


 144:.\source\rte/sc_speed.h **** };                                                                                                 
 145:.\source\rte/sc_speed.h **** typedef struct SC_SPEED_s SC_SPEED_t;
 146:.\source\rte/sc_speed.h **** 
 147:.\source\rte/sc_speed.h **** /**************************************************************************************************
 148:.\source\rte/sc_speed.h **** /* Signal initialisation   																							*/
 149:.\source\rte/sc_speed.h **** /**************************************************************************************************
 150:.\source\rte/sc_speed.h **** 
 151:.\source\rte/sc_speed.h **** /**
 152:.\source\rte/sc_speed.h ****  * Initializes a signal instance with a passed init value.
 153:.\source\rte/sc_speed.h ****  * Depending on the configured conversion or scaling function the raw_value will be calculated.
 154:.\source\rte/sc_speed.h ****  * Signal status will change from RTE_SIGNALSTATUS_STARTUP to RTE_SIGNALSTATUS_INITIALIZED.
 155:.\source\rte/sc_speed.h ****  *
 156:.\source\rte/sc_speed.h ****  * @param  SC_SPEED_t * const signal: Pointer to the signal object which will be initialised
 157:.\source\rte/sc_speed.h ****  * @return RC_t: standard return code, currently only RC_SUCCESS
 158:.\source\rte/sc_speed.h ****  *
 159:.\source\rte/sc_speed.h ****  **/
 160:.\source\rte/sc_speed.h **** inline RC_t RTE_SC_SPEED_init( SC_SPEED_t * const signal )
 161:.\source\rte/sc_speed.h **** {                                                                                                  
 162:.\source\rte/sc_speed.h **** 
 163:.\source\rte/sc_speed.h ****    RC_t ret = RC_SUCCESS;
 164:.\source\rte/sc_speed.h **** 
 165:.\source\rte/sc_speed.h ****    //Set value and raw value
 166:.\source\rte/sc_speed.h ****    signal->value  = SC_SPEED_INIT_DATA;
 167:.\source\rte/sc_speed.h ****    signal->age    = 0;
 168:.\source\rte/sc_speed.h ****    signal->status = RTE_SIGNALSTATUS_INITIALIZED;
 169:.\source\rte/sc_speed.h **** 
 170:.\source\rte/sc_speed.h ****    return ret;
 171:.\source\rte/sc_speed.h **** }
 172:.\source\rte/sc_speed.h **** 
 173:.\source\rte/sc_speed.h **** /**************************************************************************************************
 174:.\source\rte/sc_speed.h **** /* Status and timeout control																						*/
 175:.\source\rte/sc_speed.h **** /**************************************************************************************************
 176:.\source\rte/sc_speed.h **** 
 177:.\source\rte/sc_speed.h **** /**
 178:.\source\rte/sc_speed.h ****  *  Returns the current signal status of the passed signal instance.
 179:.\source\rte/sc_speed.h ****  *
 180:.\source\rte/sc_speed.h ****  * @param  SC_SPEED_t * const signal: Pointer to the signal object
 181:.\source\rte/sc_speed.h ****  * @return  sig_status_t: The current signal status
 182:.\source\rte/sc_speed.h ****  *
 183:.\source\rte/sc_speed.h ****  **/
 184:.\source\rte/sc_speed.h **** inline RTE_signalStatus_t RTE_SC_SPEED_getStatus( const SC_SPEED_t * const signal )
 185:.\source\rte/sc_speed.h **** {
 186:.\source\rte/sc_speed.h ****    return signal->status;
 187:.\source\rte/sc_speed.h **** }
 188:.\source\rte/sc_speed.h **** 
 189:.\source\rte/sc_speed.h **** 
 190:.\source\rte/sc_speed.h **** /**
 191:.\source\rte/sc_speed.h ****  *  Sets a new signal status of the passed signal instance by passing the new status.
 192:.\source\rte/sc_speed.h ****  *
 193:.\source\rte/sc_speed.h ****  * @param  SC_SPEED_t * const signal: Pointer to the signal object
 194:.\source\rte/sc_speed.h ****  * @param  const sig_status_t status: New signal status
 195:.\source\rte/sc_speed.h ****  * @return RC_t: standard return code, currently only RC_SUCCESS
 196:.\source\rte/sc_speed.h ****  *
 197:.\source\rte/sc_speed.h ****  */
 198:.\source\rte/sc_speed.h **** inline RC_t RTE_SC_SPEED_setStatus( SC_SPEED_t * const signal, const RTE_signalStatus_t status )
 199:.\source\rte/sc_speed.h **** {
 200:.\source\rte/sc_speed.h ****    signal->status = status;
ARM GAS  C:\Users\abhim\AppData\Local\Temp\ccpUSvjh.s 			page 6


 201:.\source\rte/sc_speed.h ****    size_t taskNum=0;
 202:.\source\rte/sc_speed.h ****    
 203:.\source\rte/sc_speed.h ****    //Fire error events in case of invalid state
 204:.\source\rte/sc_speed.h ****    if (signal->status == RTE_SIGNALSTATUS_INVALID)
 205:.\source\rte/sc_speed.h ****    {
 206:.\source\rte/sc_speed.h **** 	    //Pointer to the Taskarray, containing the tasks receiving the onUpdate events
 207:.\source\rte/sc_speed.h **** 		TaskTypeArray* pTaskArray = signal->pSigCfg->onErrorTasks;
 208:.\source\rte/sc_speed.h **** 
 209:.\source\rte/sc_speed.h **** 		if (0 != signal->pSigCfg->evOnError && NULL != pTaskArray){
 210:.\source\rte/sc_speed.h **** 			for( taskNum=0 ; taskNum < signal->pSigCfg->onErrorTaskCount ;taskNum++){
 211:.\source\rte/sc_speed.h **** 				TaskType task = (*pTaskArray)[taskNum];
 212:.\source\rte/sc_speed.h **** 				SetEvent( task, signal->pSigCfg->evOnError);
 213:.\source\rte/sc_speed.h **** 			}
 214:.\source\rte/sc_speed.h **** 		}
 215:.\source\rte/sc_speed.h ****    }
 216:.\source\rte/sc_speed.h ****    
 217:.\source\rte/sc_speed.h ****    return RC_SUCCESS;
 218:.\source\rte/sc_speed.h **** }
 219:.\source\rte/sc_speed.h **** 
 220:.\source\rte/sc_speed.h **** 
 221:.\source\rte/sc_speed.h **** /**
 222:.\source\rte/sc_speed.h ****  * Returns the count of refreshing trials (refresh, set or set_raw) that failed.
 223:.\source\rte/sc_speed.h ****  * Prerquisite: The signal is refreshed cyclically
 224:.\source\rte/sc_speed.h ****  *
 225:.\source\rte/sc_speed.h ****  * @param  SC_SPEED_t * const signal: Pointer to the signal object
 226:.\source\rte/sc_speed.h ****  * @return uint32_t: Number of cycles since the signal has been updated for the last time
 227:.\source\rte/sc_speed.h ****  */
 228:.\source\rte/sc_speed.h **** inline uint32_t RTE_SC_SPEED_getAge( const SC_SPEED_t * const signal )
 229:.\source\rte/sc_speed.h **** {
 230:.\source\rte/sc_speed.h ****    return signal->age;
  43              		.loc 2 230 0
  44 0002 1B4B     		ldr	r3, .L12
  45 0004 9B68     		ldr	r3, [r3, #8]
  46              	.LVL2:
  47              	.LBE12:
  48              	.LBE11:
  44:source\bsw/swc_engine_control.c **** 	
  45:source\bsw/swc_engine_control.c **** 	/* USER CODE START ENGINE_CONTROL_Engine_Control_setEngine_run */
  46:source\bsw/swc_engine_control.c ****     SC_SPEED_data_t enginespeedvalue = SC_SPEED_INIT_DATA;
  47:source\bsw/swc_engine_control.c ****     RC_t res = RC_SUCCESS;
  48:source\bsw/swc_engine_control.c ****    // RTE_SC_SPEED_incAge(&SO_SPEED_signal,100);
  49:source\bsw/swc_engine_control.c ****     if(RTE_SC_SPEED_getAge(&SO_SPEED_signal) < 150){
  49              		.loc 1 49 0
  50 0006 952B     		cmp	r3, #149
  51 0008 02D8     		bhi	.L2
  52              	.LVL3:
  50:source\bsw/swc_engine_control.c ****         enginespeedvalue.speedVal = RTE_SC_SPEED_get(&SO_SPEED_signal).speedVal;
  53              		.loc 1 50 0
  54 000a 194B     		ldr	r3, .L12
  55 000c 1C68     		ldr	r4, [r3]
  56              	.LVL4:
  57 000e 03E0     		b	.L3
  58              	.L2:
  59 0010 0024     		movs	r4, #0
  51:source\bsw/swc_engine_control.c ****     }else{
  52:source\bsw/swc_engine_control.c ****         enginespeedvalue.speedVal = 0;
  53:source\bsw/swc_engine_control.c ****         UART_LOG_PutString("Engine speed not updated\n");
ARM GAS  C:\Users\abhim\AppData\Local\Temp\ccpUSvjh.s 			page 7


  60              		.loc 1 53 0
  61 0012 1848     		ldr	r0, .L12+4
  62              	.LVL5:
  63 0014 FFF7FEFF 		bl	UART_LOG_PutString
  64              	.LVL6:
  65              	.L3:
  66              	.LBB13:
  67              	.LBB14:
 231:.\source\rte/sc_speed.h **** }
 232:.\source\rte/sc_speed.h **** 
 233:.\source\rte/sc_speed.h **** /**
 234:.\source\rte/sc_speed.h ****  * Should be called by application or driver if no new value can be provided.
 235:.\source\rte/sc_speed.h ****  * @param  SC_SPEED_t * const signal: Pointer to the signal object
 236:.\source\rte/sc_speed.h ****  * @param uint32_t increment: incrementvalue, typically in [ms]
 237:.\source\rte/sc_speed.h ****  * @return void
 238:.\source\rte/sc_speed.h ****  */
 239:.\source\rte/sc_speed.h **** inline void RTE_SC_SPEED_incAge(  SC_SPEED_t * const signal , uint32_t increment)
 240:.\source\rte/sc_speed.h **** {
 241:.\source\rte/sc_speed.h ****     char buffer[128]={0};
 242:.\source\rte/sc_speed.h ****     sprintf(buffer + strlen(buffer),"incAge is %lu", increment);
 243:.\source\rte/sc_speed.h ****     UART_LOG_PutString(buffer);
 244:.\source\rte/sc_speed.h **** 	   //Hack....
 245:.\source\rte/sc_speed.h **** 	   if ( 0xFFFF0000 > (signal->age + increment) )
 246:.\source\rte/sc_speed.h **** 	   {
 247:.\source\rte/sc_speed.h **** 	      signal->age += increment;
 248:.\source\rte/sc_speed.h **** 	   }
 249:.\source\rte/sc_speed.h **** }
 250:.\source\rte/sc_speed.h **** 
 251:.\source\rte/sc_speed.h **** 
 252:.\source\rte/sc_speed.h **** /**************************************************************************************************
 253:.\source\rte/sc_speed.h **** /* Application Data read/write Interface																			*/
 254:.\source\rte/sc_speed.h **** /**************************************************************************************************
 255:.\source\rte/sc_speed.h **** 
 256:.\source\rte/sc_speed.h **** /**
 257:.\source\rte/sc_speed.h ****  * Returns the current application value as pointer to the signal payload.
 258:.\source\rte/sc_speed.h ****  * Careful: This is not threadsafe!!!
 259:.\source\rte/sc_speed.h ****  *
 260:.\source\rte/sc_speed.h ****  * @param  SC_SPEED_t * const signal: Pointer to the signal object
 261:.\source\rte/sc_speed.h ****  * @return sc_speed_data_t*: pointer to the current value of the application data buffer
 262:.\source\rte/sc_speed.h ****  *
 263:.\source\rte/sc_speed.h ****  **/
 264:.\source\rte/sc_speed.h **** inline SC_SPEED_data_t* RTE_SC_SPEED_getPtr( SC_SPEED_t * const signal )
 265:.\source\rte/sc_speed.h **** {               
 266:.\source\rte/sc_speed.h ****    //Todo: Critical region cannot be protected using return values																						
 267:.\source\rte/sc_speed.h ****    return &(signal->value);                                                                        
 268:.\source\rte/sc_speed.h **** }
 269:.\source\rte/sc_speed.h **** 
 270:.\source\rte/sc_speed.h **** /**
 271:.\source\rte/sc_speed.h ****  * Returns the current application value of the passed signal instance.
 272:.\source\rte/sc_speed.h ****  *
 273:.\source\rte/sc_speed.h ****  * @param  SC_SPEED_t * const signal: Pointer to the signal object
 274:.\source\rte/sc_speed.h ****  * @return sc_speed_data_t: current value of the application data buffer
 275:.\source\rte/sc_speed.h ****  *
 276:.\source\rte/sc_speed.h ****  **/
 277:.\source\rte/sc_speed.h **** inline SC_SPEED_data_t RTE_SC_SPEED_get( const SC_SPEED_t * const signal )
 278:.\source\rte/sc_speed.h **** {               
 279:.\source\rte/sc_speed.h ****    //Todo: Critical region cannot be protected using return values																						
ARM GAS  C:\Users\abhim\AppData\Local\Temp\ccpUSvjh.s 			page 8


 280:.\source\rte/sc_speed.h ****    return signal->value;                                                                           
 281:.\source\rte/sc_speed.h **** }                                                                                                  
 282:.\source\rte/sc_speed.h ****                                                                                                    
 283:.\source\rte/sc_speed.h **** /**
 284:.\source\rte/sc_speed.h ****  * Returns the current application value of the passed signal instance threadsafe.
 285:.\source\rte/sc_speed.h ****  *
 286:.\source\rte/sc_speed.h ****  * @param  SC_SPEED_t * const signal: Pointer to the signal object
 287:.\source\rte/sc_speed.h ****  * @param  SC_SPEED_data_t* data: Pointer to the return data Pointer to the signal object
 288:.\source\rte/sc_speed.h ****  * @return RC_SUCCESS
 289:.\source\rte/sc_speed.h ****  *
 290:.\source\rte/sc_speed.h ****  **/
 291:.\source\rte/sc_speed.h **** inline RC_t RTE_SC_SPEED_getThreadSafe( const SC_SPEED_t * const signal, SC_SPEED_data_t * const da
 292:.\source\rte/sc_speed.h **** {    
 293:.\source\rte/sc_speed.h ****    if (TRUE == signal->pSigCfg->resourceActive) GetResource(signal->pSigCfg->resource);
 294:.\source\rte/sc_speed.h ****    *data = signal->value;
 295:.\source\rte/sc_speed.h ****    if (TRUE == signal->pSigCfg->resourceActive) ReleaseResource(signal->pSigCfg->resource);        
 296:.\source\rte/sc_speed.h **** 
 297:.\source\rte/sc_speed.h ****    return RC_SUCCESS;                                                                   
 298:.\source\rte/sc_speed.h ****    
 299:.\source\rte/sc_speed.h **** }                                                                                                  
 300:.\source\rte/sc_speed.h ****                                                                                                    
 301:.\source\rte/sc_speed.h **** /**
 302:.\source\rte/sc_speed.h ****  * Sets a new application value to the passed signal instance by passing the new value.
 303:.\source\rte/sc_speed.h ****  * The corresponding driver raw value will be calculated immediately by using the default conversio
 304:.\source\rte/sc_speed.h ****  * signal specific scaling function.
 305:.\source\rte/sc_speed.h ****  * The signal age will be set to 0 and the new status will be 'RTE_SIGNALSTATUS_VALID'.
 306:.\source\rte/sc_speed.h ****  *
 307:.\source\rte/sc_speed.h ****  * @param  SC_SPEED_t * const signal: Pointer to the signal object
 308:.\source\rte/sc_speed.h ****  * @param  sc_speed_data_t const value: value for the application data buffer
 309:.\source\rte/sc_speed.h ****  * @return RC_t: standard return code, currently only RC_SUCCESS
 310:.\source\rte/sc_speed.h ****  *
 311:.\source\rte/sc_speed.h ****  **/
 312:.\source\rte/sc_speed.h **** inline RC_t RTE_SC_SPEED_set(SC_SPEED_t * const signal, const SC_SPEED_data_t value  )
 313:.\source\rte/sc_speed.h **** {
 314:.\source\rte/sc_speed.h **** 
 315:.\source\rte/sc_speed.h ****    RC_t ret = RC_SUCCESS;
 316:.\source\rte/sc_speed.h ****    size_t taskNum=0;
 317:.\source\rte/sc_speed.h **** 
 318:.\source\rte/sc_speed.h **** 
 319:.\source\rte/sc_speed.h ****    if (TRUE == signal->pSigCfg->resourceActive) GetResource(signal->pSigCfg->resource);
  68              		.loc 2 319 0
  69 0018 174B     		ldr	r3, .L12+8
  70 001a DA68     		ldr	r2, [r3, #12]
  71              	.LVL7:
 320:.\source\rte/sc_speed.h ****    signal->value  = value;
  72              		.loc 2 320 0
  73 001c 1C60     		str	r4, [r3]
 321:.\source\rte/sc_speed.h ****    signal->age    = 0;
  74              		.loc 2 321 0
  75 001e 0021     		movs	r1, #0
  76 0020 9960     		str	r1, [r3, #8]
 322:.\source\rte/sc_speed.h ****    signal->status = RTE_SIGNALSTATUS_VALID;
  77              		.loc 2 322 0
  78 0022 0221     		movs	r1, #2
  79 0024 1971     		strb	r1, [r3, #4]
 323:.\source\rte/sc_speed.h ****    if (TRUE == signal->pSigCfg->resourceActive) ReleaseResource(signal->pSigCfg->resource);
 324:.\source\rte/sc_speed.h **** 
ARM GAS  C:\Users\abhim\AppData\Local\Temp\ccpUSvjh.s 			page 9


 325:.\source\rte/sc_speed.h ****    //Pointer to the Taskarray, containing the tasks receiving the onUpdate events
 326:.\source\rte/sc_speed.h ****    TaskTypeArray* pTaskArray = signal->pSigCfg->onUpdateTasks;
  80              		.loc 2 326 0
  81 0026 5569     		ldr	r5, [r2, #20]
  82              	.LVL8:
 327:.\source\rte/sc_speed.h **** 
 328:.\source\rte/sc_speed.h ****    if (0 != signal->pSigCfg->evOnUpdate && NULL != pTaskArray){
  83              		.loc 2 328 0
  84 0028 9368     		ldr	r3, [r2, #8]
  85 002a 73B1     		cbz	r3, .L4
  86 002c 3DB9     		cbnz	r5, .L9
  87 002e 0CE0     		b	.L4
  88              	.LVL9:
  89              	.L6:
  90              	.LBB15:
 329:.\source\rte/sc_speed.h ****       for( taskNum=0 ; taskNum < signal->pSigCfg->onUpdateTaskCount ;taskNum++){
 330:.\source\rte/sc_speed.h **** 		  
 331:.\source\rte/sc_speed.h ****           TaskType task = (*pTaskArray)[taskNum];
 332:.\source\rte/sc_speed.h **** 	      SetEvent( task, signal->pSigCfg->evOnUpdate);
  91              		.loc 2 332 0
  92 0030 9968     		ldr	r1, [r3, #8]
  93 0032 55F82400 		ldr	r0, [r5, r4, lsl #2]
  94 0036 FFF7FEFF 		bl	EE_oo_SetEvent
  95              	.LVL10:
  96              	.LBE15:
 329:.\source\rte/sc_speed.h ****       for( taskNum=0 ; taskNum < signal->pSigCfg->onUpdateTaskCount ;taskNum++){
  97              		.loc 2 329 0
  98 003a 0134     		adds	r4, r4, #1
  99              	.LVL11:
 100 003c 00E0     		b	.L5
 101              	.LVL12:
 102              	.L9:
 328:.\source\rte/sc_speed.h ****       for( taskNum=0 ; taskNum < signal->pSigCfg->onUpdateTaskCount ;taskNum++){
 103              		.loc 2 328 0
 104 003e 0024     		movs	r4, #0
 105              	.LVL13:
 106              	.L5:
 329:.\source\rte/sc_speed.h ****       for( taskNum=0 ; taskNum < signal->pSigCfg->onUpdateTaskCount ;taskNum++){
 107              		.loc 2 329 0
 108 0040 0D4B     		ldr	r3, .L12+8
 109 0042 DB68     		ldr	r3, [r3, #12]
 110 0044 1A69     		ldr	r2, [r3, #16]
 111 0046 9442     		cmp	r4, r2
 112 0048 F2D3     		bcc	.L6
 113              	.LVL14:
 114              	.L4:
 115              	.LBE14:
 116              	.LBE13:
 117              	.LBB16:
 118              	.LBB17:
 333:.\source\rte/sc_speed.h ****       }
 334:.\source\rte/sc_speed.h ****    }
 335:.\source\rte/sc_speed.h **** 
 336:.\source\rte/sc_speed.h ****    return ret;
 337:.\source\rte/sc_speed.h **** }                                                                                                  
 338:.\source\rte/sc_speed.h ****                                                                                                    
 339:.\source\rte/sc_speed.h ****                                                                                                    
ARM GAS  C:\Users\abhim\AppData\Local\Temp\ccpUSvjh.s 			page 10


 340:.\source\rte/sc_speed.h **** /**************************************************************************************************
 341:.\source\rte/sc_speed.h **** /* Call functions to the connected drivers																			*/
 342:.\source\rte/sc_speed.h **** /**************************************************************************************************
 343:.\source\rte/sc_speed.h **** 
 344:.\source\rte/sc_speed.h ****                                                                                                    
 345:.\source\rte/sc_speed.h **** /**
 346:.\source\rte/sc_speed.h ****  *  Calls the connected driver interface to get a new value.
 347:.\source\rte/sc_speed.h ****  *
 348:.\source\rte/sc_speed.h ****  * @param SC_SPEED_t * const signal: Pointer to the signal object
 349:.\source\rte/sc_speed.h ****  * @return  RC_t: Return value of the driver call
 350:.\source\rte/sc_speed.h ****  *
 351:.\source\rte/sc_speed.h ****  */
 352:.\source\rte/sc_speed.h **** inline RC_t RTE_SC_SPEED_pullPort( SC_SPEED_t * const signal )
 353:.\source\rte/sc_speed.h **** {                                                                                                  
 354:.\source\rte/sc_speed.h ****    RC_t ret = RC_SUCCESS;
 355:.\source\rte/sc_speed.h **** 
 356:.\source\rte/sc_speed.h ****                                                                                                    
 357:.\source\rte/sc_speed.h ****    if ( NULL != signal->pSigCfg->inDriver )
 358:.\source\rte/sc_speed.h ****    {
 359:.\source\rte/sc_speed.h **** 	  SC_SPEED_data_t value = signal->value;
 360:.\source\rte/sc_speed.h ****       ret = signal->pSigCfg->inDriver(&value);
 361:.\source\rte/sc_speed.h ****                                                                                                    
 362:.\source\rte/sc_speed.h ****       if ( ret == RC_SUCCESS )                                                                     
 363:.\source\rte/sc_speed.h ****       {
 364:.\source\rte/sc_speed.h ****     	  //Critical Section
 365:.\source\rte/sc_speed.h ****     	  RTE_SC_SPEED_set(signal, value);
 366:.\source\rte/sc_speed.h ****       }
 367:.\source\rte/sc_speed.h ****       else
 368:.\source\rte/sc_speed.h ****       {
 369:.\source\rte/sc_speed.h **** 		  //Signal is invalid. Error event (if present) will be fired
 370:.\source\rte/sc_speed.h **** 		  RTE_SC_SPEED_setStatus(signal, RTE_SIGNALSTATUS_INVALID);
 371:.\source\rte/sc_speed.h ****       }
 372:.\source\rte/sc_speed.h **** 
 373:.\source\rte/sc_speed.h ****    }                                                                                               
 374:.\source\rte/sc_speed.h ****                                                                                                    
 375:.\source\rte/sc_speed.h ****    return ret;                                                                                     
 376:.\source\rte/sc_speed.h **** }                                                                                                  
 377:.\source\rte/sc_speed.h ****                                                                                                    
 378:.\source\rte/sc_speed.h **** /**
 379:.\source\rte/sc_speed.h ****  *  Calls the connected driver interfaces to send a value. Value will not be sent if it is INVALID.
 380:.\source\rte/sc_speed.h ****  *
 381:.\source\rte/sc_speed.h ****  * @param SC_SPEED_t * const signal: Pointer to the signal object
 382:.\source\rte/sc_speed.h ****  * @return  RC_t: Return value of the driver call
 383:.\source\rte/sc_speed.h ****  *
 384:.\source\rte/sc_speed.h ****  **/
 385:.\source\rte/sc_speed.h **** inline RC_t RTE_SC_SPEED_pushPort( const SC_SPEED_t * const signal )
 386:.\source\rte/sc_speed.h **** {                                                                                                  
 387:.\source\rte/sc_speed.h ****    RC_t ret = RC_ERROR;
 388:.\source\rte/sc_speed.h **** 
 389:.\source\rte/sc_speed.h ****    if (RTE_SIGNALSTATUS_VALID == signal->status)
 119              		.loc 2 389 0
 120 004a 0B4B     		ldr	r3, .L12+8
 121 004c 1B79     		ldrb	r3, [r3, #4]	@ zero_extendqisi2
 122 004e 022B     		cmp	r3, #2
 123 0050 04D1     		bne	.L10
 390:.\source\rte/sc_speed.h ****    {
 391:.\source\rte/sc_speed.h **** 	   ret = signal->pSigCfg->outDriver(&(signal->value));
ARM GAS  C:\Users\abhim\AppData\Local\Temp\ccpUSvjh.s 			page 11


 124              		.loc 2 391 0
 125 0052 0948     		ldr	r0, .L12+8
 126 0054 C368     		ldr	r3, [r0, #12]
 127 0056 5B68     		ldr	r3, [r3, #4]
 128 0058 9847     		blx	r3
 129              	.LVL15:
 130 005a 01E0     		b	.L7
 131              	.LVL16:
 132              	.L10:
 387:.\source\rte/sc_speed.h **** 
 133              		.loc 2 387 0
 134 005c 4FF0FF30 		mov	r0, #-1
 135              	.LVL17:
 136              	.L7:
 137              	.LBE17:
 138              	.LBE16:
  54:source\bsw/swc_engine_control.c ****     }
  55:source\bsw/swc_engine_control.c ****     res = RTE_SC_SPEED_set(&SO_ENGINESIGNAL_signal,enginespeedvalue);
  56:source\bsw/swc_engine_control.c ****     
  57:source\bsw/swc_engine_control.c ****     if (res == RC_SUCCESS)
  58:source\bsw/swc_engine_control.c ****     {
  59:source\bsw/swc_engine_control.c ****         res = RTE_SC_SPEED_pushPort(&SO_ENGINESIGNAL_signal);
  60:source\bsw/swc_engine_control.c ****         if (res != RC_SUCCESS)
 139              		.loc 1 60 0
 140 0060 10B1     		cbz	r0, .L8
  61:source\bsw/swc_engine_control.c ****         {
  62:source\bsw/swc_engine_control.c ****             UART_LOG_PutString("\nError: Enginee signal not able to write to Driver\n");
 141              		.loc 1 62 0
 142 0062 0648     		ldr	r0, .L12+12
 143 0064 FFF7FEFF 		bl	UART_LOG_PutString
 144              	.LVL18:
 145              	.L8:
  63:source\bsw/swc_engine_control.c ****         }
  64:source\bsw/swc_engine_control.c ****     }
  65:source\bsw/swc_engine_control.c ****     else
  66:source\bsw/swc_engine_control.c ****     {
  67:source\bsw/swc_engine_control.c ****         UART_LOG_PutString("\nERROR: Engine signal object not updated with engine signal value\n");
  68:source\bsw/swc_engine_control.c ****     }
  69:source\bsw/swc_engine_control.c ****     WD_Alive(WD_setEngine);
 146              		.loc 1 69 0
 147 0068 0220     		movs	r0, #2
 148 006a FFF7FEFF 		bl	WD_Alive
 149              	.LVL19:
 150 006e 38BD     		pop	{r3, r4, r5, pc}
 151              	.LVL20:
 152              	.L13:
 153              		.align	2
 154              	.L12:
 155 0070 00000000 		.word	SO_SPEED_signal
 156 0074 00000000 		.word	.LC0
 157 0078 00000000 		.word	SO_ENGINESIGNAL_signal
 158 007c 1C000000 		.word	.LC1
 159              		.cfi_endproc
 160              	.LFE132:
 161              		.size	ENGINE_CONTROL_Engine_Control_setEngine_run, .-ENGINE_CONTROL_Engine_Control_setEngine_run
 162              		.section	.rodata.str1.4,"aMS",%progbits,1
 163              		.align	2
ARM GAS  C:\Users\abhim\AppData\Local\Temp\ccpUSvjh.s 			page 12


 164              	.LC0:
 165 0000 456E6769 		.ascii	"Engine speed not updated\012\000"
 165      6E652073 
 165      70656564 
 165      206E6F74 
 165      20757064 
 166 001a 0000     		.space	2
 167              	.LC1:
 168 001c 0A457272 		.ascii	"\012Error: Enginee signal not able to write to Driv"
 168      6F723A20 
 168      456E6769 
 168      6E656520 
 168      7369676E 
 169 004c 65720A00 		.ascii	"er\012\000"
 170              		.text
 171              	.Letext0:
 172              		.file 3 "c:\\program files (x86)\\cypress\\psoc creator\\4.4\\psoc creator\\import\\gnu\\arm\\5.4.
 173              		.file 4 "c:\\program files (x86)\\cypress\\psoc creator\\4.4\\psoc creator\\import\\gnu\\arm\\5.4.
 174              		.file 5 "c:\\program files (x86)\\cypress\\psoc creator\\4.4\\psoc creator\\import\\gnu\\arm\\5.4.
 175              		.file 6 "Generated_Source\\PSoC5/ErikaOS_common_ee_types.inc"
 176              		.file 7 "Generated_Source\\PSoC5/ErikaOS_cortex_mx_ee_cpu.inc"
 177              		.file 8 "Generated_Source\\PSoC5/ErikaOS_ee_oo_common.inc"
 178              		.file 9 "source\\bsw\\global.h"
 179              		.file 10 ".\\source\\rte/rte_types.h"
 180              		.file 11 ".\\source\\rte/rte.h"
 181              		.file 12 ".\\source\\rte/sc_speed_type.h"
 182              		.file 13 "./watchdog.h"
 183              		.file 14 "Generated_Source\\PSoC5/ErikaOS_ee_oo_intfunc.inc"
 184              		.file 15 "Generated_Source\\PSoC5/ErikaOS_cortex_mx_ee_context.inc"
 185              		.file 16 "Generated_Source\\PSoC5/ErikaOS_common_ee_primitives.inc"
 186              		.file 17 "Generated_Source\\PSoC5/core_cm3.h"
 187              		.file 18 ".\\source\\rte/sp_signalpool.h"
 188              		.file 19 "Generated_Source\\PSoC5/ErikaOS_ee_oo_kernel.inc"
 189              		.file 20 "Generated_Source\\PSoC5/UART_LOG.h"