ARM GAS  C:\Users\abhim\AppData\Local\Temp\ccfE1vKv.s 			page 1


   1              		.syntax unified
   2              		.cpu cortex-m3
   3              		.fpu softvfp
   4              		.eabi_attribute 20, 1
   5              		.eabi_attribute 21, 1
   6              		.eabi_attribute 23, 3
   7              		.eabi_attribute 24, 1
   8              		.eabi_attribute 25, 1
   9              		.eabi_attribute 26, 1
  10              		.eabi_attribute 30, 1
  11              		.eabi_attribute 34, 1
  12              		.eabi_attribute 18, 4
  13              		.thumb
  14              		.syntax unified
  15              		.file	"swc_joystick.c"
  16              		.text
  17              	.Ltext0:
  18              		.cfi_sections	.debug_frame
  19              		.section	.text.JOYSTICK_Joystick_readJoystick_run,"ax",%progbits
  20              		.align	2
  21              		.global	JOYSTICK_Joystick_readJoystick_run
  22              		.thumb
  23              		.thumb_func
  24              		.type	JOYSTICK_Joystick_readJoystick_run, %function
  25              	JOYSTICK_Joystick_readJoystick_run:
  26              	.LFB132:
  27              		.file 1 "source\\bsw\\swc_joystick.c"
   1:source\bsw/swc_joystick.c **** /*
   2:source\bsw/swc_joystick.c ****  * Filename: swc_joystick.c
   3:source\bsw/swc_joystick.c ****  *
   4:source\bsw/swc_joystick.c ****  * Author: Autogenerated by H-DA RTE Generator, (c) Prof. Fromm
   5:source\bsw/swc_joystick.c ****  *
   6:source\bsw/swc_joystick.c ****  * description: Software component
   7:source\bsw/swc_joystick.c ****  * name: swc_joystick
   8:source\bsw/swc_joystick.c ****  * shortname: joystick
   9:source\bsw/swc_joystick.c ****  *
  10:source\bsw/swc_joystick.c ****  */
  11:source\bsw/swc_joystick.c **** 
  12:source\bsw/swc_joystick.c **** #include "project.h"
  13:source\bsw/swc_joystick.c **** #include "global.h"
  14:source\bsw/swc_joystick.c **** #include "rte.h"
  15:source\bsw/swc_joystick.c **** #include "rte_types.h"
  16:source\bsw/swc_joystick.c **** #include "swc_joystick.h"
  17:source\bsw/swc_joystick.c **** 
  18:source\bsw/swc_joystick.c **** 
  19:source\bsw/swc_joystick.c **** /* USER CODE START SWC_JOYSTICK_INCLUDE */
  20:source\bsw/swc_joystick.c **** 
  21:source\bsw/swc_joystick.c **** /* USER CODE END SWC_JOYSTICK_INCLUDE */
  22:source\bsw/swc_joystick.c **** 
  23:source\bsw/swc_joystick.c **** 
  24:source\bsw/swc_joystick.c **** #include "sp_signalpool.h"
  25:source\bsw/swc_joystick.c **** 
  26:source\bsw/swc_joystick.c **** /* USER CODE START SWC_JOYSTICK_USERDEFINITIONS */
  27:source\bsw/swc_joystick.c **** 
  28:source\bsw/swc_joystick.c **** /* USER CODE END SWC_JOYSTICK_USERDEFINITIONS */
  29:source\bsw/swc_joystick.c **** 
  30:source\bsw/swc_joystick.c **** 
ARM GAS  C:\Users\abhim\AppData\Local\Temp\ccfE1vKv.s 			page 2


  31:source\bsw/swc_joystick.c **** 
  32:source\bsw/swc_joystick.c **** /*
  33:source\bsw/swc_joystick.c ****  * component: swc_joystick
  34:source\bsw/swc_joystick.c ****  * cycletime: 10
  35:source\bsw/swc_joystick.c ****  * description: Runnable
  36:source\bsw/swc_joystick.c ****  * events: 
  37:source\bsw/swc_joystick.c ****  * name: JOYSTICK_Joystick_readJoystick_run
  38:source\bsw/swc_joystick.c ****  * shortname: Joystick_readJoystick
  39:source\bsw/swc_joystick.c ****  * signalIN: 
  40:source\bsw/swc_joystick.c ****  * signalOUT: so_joystick
  41:source\bsw/swc_joystick.c ****  * task: tsk_IO
  42:source\bsw/swc_joystick.c ****  */
  43:source\bsw/swc_joystick.c **** void JOYSTICK_Joystick_readJoystick_run(RTE_event ev){
  28              		.loc 1 43 0
  29              		.cfi_startproc
  30              		@ args = 0, pretend = 0, frame = 8
  31              		@ frame_needed = 0, uses_anonymous_args = 0
  32              	.LVL0:
  33 0000 70B5     		push	{r4, r5, r6, lr}
  34              		.cfi_def_cfa_offset 16
  35              		.cfi_offset 4, -16
  36              		.cfi_offset 5, -12
  37              		.cfi_offset 6, -8
  38              		.cfi_offset 14, -4
  39 0002 82B0     		sub	sp, sp, #8
  40              		.cfi_def_cfa_offset 24
  41              	.LVL1:
  42              	.LBB20:
  43              	.LBB21:
  44              		.file 2 ".\\source\\rte/sc_joystick.h"
   1:.\source\rte/sc_joystick.h **** 
   2:.\source\rte/sc_joystick.h **** 
   3:.\source\rte/sc_joystick.h **** /**
   4:.\source\rte/sc_joystick.h ****  *  file    SC_JOYSTICK_signal.h
   5:.\source\rte/sc_joystick.h ****  *
   6:.\source\rte/sc_joystick.h ****  *  brief   signal base class for signal sc_joystick
   7:.\source\rte/sc_joystick.h ****  *
   8:.\source\rte/sc_joystick.h ****  *  author  Autogenerated, Peter Fromm       <peter.fromm@h-da.de>
   9:.\source\rte/sc_joystick.h ****  *
  10:.\source\rte/sc_joystick.h ****  * description: signal is updated every 10ms and is used by the control logic to compute the vehicl
  11:.\source\rte/sc_joystick.h ****  * name: sc_joystick
  12:.\source\rte/sc_joystick.h ****  * shortname: joystick
  13:.\source\rte/sc_joystick.h ****  *
  14:.\source\rte/sc_joystick.h ****  */
  15:.\source\rte/sc_joystick.h **** 
  16:.\source\rte/sc_joystick.h **** 
  17:.\source\rte/sc_joystick.h **** 
  18:.\source\rte/sc_joystick.h **** #ifndef SC_JOYSTICK_SIGNAL_H_INCLUDED
  19:.\source\rte/sc_joystick.h **** #define SC_JOYSTICK_SIGNAL_H_INCLUDED
  20:.\source\rte/sc_joystick.h **** 
  21:.\source\rte/sc_joystick.h **** /*================================================[ public includes  ]=============================
  22:.\source\rte/sc_joystick.h **** #include "global.h"
  23:.\source\rte/sc_joystick.h **** #include "project.h"
  24:.\source\rte/sc_joystick.h **** #include "rte.h"
  25:.\source\rte/sc_joystick.h **** #include "rte_types.h"
  26:.\source\rte/sc_joystick.h **** 
  27:.\source\rte/sc_joystick.h **** #include "sc_joystick_type.h"
ARM GAS  C:\Users\abhim\AppData\Local\Temp\ccfE1vKv.s 			page 3


  28:.\source\rte/sc_joystick.h **** 
  29:.\source\rte/sc_joystick.h **** 
  30:.\source\rte/sc_joystick.h **** /**************************************************************************************************
  31:.\source\rte/sc_joystick.h **** /* The driver API block																						*/
  32:.\source\rte/sc_joystick.h **** /**************************************************************************************************
  33:.\source\rte/sc_joystick.h ****                                                                                                    
  34:.\source\rte/sc_joystick.h **** /**
  35:.\source\rte/sc_joystick.h ****  *  Definition of function types for driver interfaces.
  36:.\source\rte/sc_joystick.h ****  *  I-Port
  37:.\source\rte/sc_joystick.h ****  */
  38:.\source\rte/sc_joystick.h **** typedef RC_t (*SC_JOYSTICK_driverIn_t)(SC_JOYSTICK_data_t * const);
  39:.\source\rte/sc_joystick.h **** 
  40:.\source\rte/sc_joystick.h **** /**
  41:.\source\rte/sc_joystick.h ****  *  Definition of function types for driver interfaces.
  42:.\source\rte/sc_joystick.h ****  *  O-Port
  43:.\source\rte/sc_joystick.h ****  */
  44:.\source\rte/sc_joystick.h **** typedef RC_t (*SC_JOYSTICK_driverOut_t)( const SC_JOYSTICK_data_t * const);
  45:.\source\rte/sc_joystick.h **** 
  46:.\source\rte/sc_joystick.h **** 
  47:.\source\rte/sc_joystick.h **** /**************************************************************************************************
  48:.\source\rte/sc_joystick.h **** /* The signal configuration API block																				*/
  49:.\source\rte/sc_joystick.h **** /**************************************************************************************************
  50:.\source\rte/sc_joystick.h **** 
  51:.\source\rte/sc_joystick.h **** /**
  52:.\source\rte/sc_joystick.h ****  * Instances of the struct SC_JOYSTICK_cfg_t represent the signal object configuration.
  53:.\source\rte/sc_joystick.h ****  */
  54:.\source\rte/sc_joystick.h **** struct SC_JOYSTICK_cfg_s
  55:.\source\rte/sc_joystick.h **** {
  56:.\source\rte/sc_joystick.h ****     /**
  57:.\source\rte/sc_joystick.h ****      * Function pointer to the input driver
  58:.\source\rte/sc_joystick.h ****      */
  59:.\source\rte/sc_joystick.h ****     SC_JOYSTICK_driverIn_t const inDriver;
  60:.\source\rte/sc_joystick.h **** 
  61:.\source\rte/sc_joystick.h ****     /**
  62:.\source\rte/sc_joystick.h ****      * Function pointer to the output driver table
  63:.\source\rte/sc_joystick.h ****      */
  64:.\source\rte/sc_joystick.h ****    SC_JOYSTICK_driverOut_t const outDriver;
  65:.\source\rte/sc_joystick.h ****    
  66:.\source\rte/sc_joystick.h ****     /**
  67:.\source\rte/sc_joystick.h ****      * Event onUpdate
  68:.\source\rte/sc_joystick.h ****      */
  69:.\source\rte/sc_joystick.h ****     EventMaskType const evOnUpdate;
  70:.\source\rte/sc_joystick.h ****     
  71:.\source\rte/sc_joystick.h ****     
  72:.\source\rte/sc_joystick.h ****     /**
  73:.\source\rte/sc_joystick.h ****      * Event onError
  74:.\source\rte/sc_joystick.h ****      */
  75:.\source\rte/sc_joystick.h ****     EventMaskType const evOnError;
  76:.\source\rte/sc_joystick.h ****     
  77:.\source\rte/sc_joystick.h ****     /**
  78:.\source\rte/sc_joystick.h ****      * Task Count onUpdate
  79:.\source\rte/sc_joystick.h ****      */
  80:.\source\rte/sc_joystick.h ****     size_t const onUpdateTaskCount;
  81:.\source\rte/sc_joystick.h **** 
  82:.\source\rte/sc_joystick.h ****     /**
  83:.\source\rte/sc_joystick.h ****      * Task List onUpdate
  84:.\source\rte/sc_joystick.h ****      */
ARM GAS  C:\Users\abhim\AppData\Local\Temp\ccfE1vKv.s 			page 4


  85:.\source\rte/sc_joystick.h ****     TaskTypeArray* const onUpdateTasks;
  86:.\source\rte/sc_joystick.h ****     
  87:.\source\rte/sc_joystick.h ****     /**
  88:.\source\rte/sc_joystick.h ****      * Task Count onError
  89:.\source\rte/sc_joystick.h ****      */
  90:.\source\rte/sc_joystick.h ****     size_t const onErrorTaskCount;
  91:.\source\rte/sc_joystick.h **** 
  92:.\source\rte/sc_joystick.h ****     /**
  93:.\source\rte/sc_joystick.h ****      * Task List onError
  94:.\source\rte/sc_joystick.h ****      */
  95:.\source\rte/sc_joystick.h ****     TaskTypeArray* const onErrorTasks;
  96:.\source\rte/sc_joystick.h **** 	
  97:.\source\rte/sc_joystick.h **** 	
  98:.\source\rte/sc_joystick.h **** 	/**
  99:.\source\rte/sc_joystick.h **** 	 * Ressourse is active? We need an additional boolean as a ressource value 0 is valid.
 100:.\source\rte/sc_joystick.h **** 	 */
 101:.\source\rte/sc_joystick.h **** 	 boolean_t const resourceActive;
 102:.\source\rte/sc_joystick.h **** 	 
 103:.\source\rte/sc_joystick.h **** 	/**
 104:.\source\rte/sc_joystick.h **** 	 * Ressourse 
 105:.\source\rte/sc_joystick.h **** 	 */
 106:.\source\rte/sc_joystick.h **** 	 ResourceType const resource;
 107:.\source\rte/sc_joystick.h **** 
 108:.\source\rte/sc_joystick.h **** };                                                                                                 
 109:.\source\rte/sc_joystick.h **** typedef const struct SC_JOYSTICK_cfg_s SC_JOYSTICK_cfg_t;
 110:.\source\rte/sc_joystick.h ****                               
 111:.\source\rte/sc_joystick.h **** /**************************************************************************************************
 112:.\source\rte/sc_joystick.h **** /* The data interface block																							*/
 113:.\source\rte/sc_joystick.h **** /**************************************************************************************************
 114:.\source\rte/sc_joystick.h **** 
 115:.\source\rte/sc_joystick.h ****                                                                                                    
 116:.\source\rte/sc_joystick.h **** 							  
 117:.\source\rte/sc_joystick.h **** /**
 118:.\source\rte/sc_joystick.h ****  * Instances of the struct SC_JOYSTICK_t represent the signal objects.
 119:.\source\rte/sc_joystick.h ****  * A signal object contains the current application value 'value' as well as relevant meta data.
 120:.\source\rte/sc_joystick.h ****  */
 121:.\source\rte/sc_joystick.h **** struct SC_JOYSTICK_s
 122:.\source\rte/sc_joystick.h **** {                                                                                                  
 123:.\source\rte/sc_joystick.h **** 
 124:.\source\rte/sc_joystick.h **** 	/**
 125:.\source\rte/sc_joystick.h **** 	 * Data buffer for the application value
 126:.\source\rte/sc_joystick.h **** 	 */
 127:.\source\rte/sc_joystick.h ****     SC_JOYSTICK_data_t value;
 128:.\source\rte/sc_joystick.h **** 
 129:.\source\rte/sc_joystick.h ****     /**
 130:.\source\rte/sc_joystick.h ****      * Current signal status
 131:.\source\rte/sc_joystick.h ****      */
 132:.\source\rte/sc_joystick.h ****     RTE_signalStatus_t status;
 133:.\source\rte/sc_joystick.h **** 
 134:.\source\rte/sc_joystick.h ****     /**
 135:.\source\rte/sc_joystick.h ****      * Current age of the signal (in calling cycles)
 136:.\source\rte/sc_joystick.h ****      */
 137:.\source\rte/sc_joystick.h ****     uint32_t age;
 138:.\source\rte/sc_joystick.h **** 
 139:.\source\rte/sc_joystick.h ****     /**
 140:.\source\rte/sc_joystick.h ****      * Pointer to the signal configuration
 141:.\source\rte/sc_joystick.h ****      */
ARM GAS  C:\Users\abhim\AppData\Local\Temp\ccfE1vKv.s 			page 5


 142:.\source\rte/sc_joystick.h **** 	const SC_JOYSTICK_cfg_t * const    pSigCfg;
 143:.\source\rte/sc_joystick.h **** 
 144:.\source\rte/sc_joystick.h **** };                                                                                                 
 145:.\source\rte/sc_joystick.h **** typedef struct SC_JOYSTICK_s SC_JOYSTICK_t;
 146:.\source\rte/sc_joystick.h **** 
 147:.\source\rte/sc_joystick.h **** /**************************************************************************************************
 148:.\source\rte/sc_joystick.h **** /* Signal initialisation   																							*/
 149:.\source\rte/sc_joystick.h **** /**************************************************************************************************
 150:.\source\rte/sc_joystick.h **** 
 151:.\source\rte/sc_joystick.h **** /**
 152:.\source\rte/sc_joystick.h ****  * Initializes a signal instance with a passed init value.
 153:.\source\rte/sc_joystick.h ****  * Depending on the configured conversion or scaling function the raw_value will be calculated.
 154:.\source\rte/sc_joystick.h ****  * Signal status will change from RTE_SIGNALSTATUS_STARTUP to RTE_SIGNALSTATUS_INITIALIZED.
 155:.\source\rte/sc_joystick.h ****  *
 156:.\source\rte/sc_joystick.h ****  * @param  SC_JOYSTICK_t * const signal: Pointer to the signal object which will be initialised
 157:.\source\rte/sc_joystick.h ****  * @return RC_t: standard return code, currently only RC_SUCCESS
 158:.\source\rte/sc_joystick.h ****  *
 159:.\source\rte/sc_joystick.h ****  **/
 160:.\source\rte/sc_joystick.h **** inline RC_t RTE_SC_JOYSTICK_init( SC_JOYSTICK_t * const signal )
 161:.\source\rte/sc_joystick.h **** {                                                                                                  
 162:.\source\rte/sc_joystick.h **** 
 163:.\source\rte/sc_joystick.h ****    RC_t ret = RC_SUCCESS;
 164:.\source\rte/sc_joystick.h **** 
 165:.\source\rte/sc_joystick.h ****    //Set value and raw value
 166:.\source\rte/sc_joystick.h ****    signal->value  = SC_JOYSTICK_INIT_DATA;
 167:.\source\rte/sc_joystick.h ****    signal->age    = 0;
 168:.\source\rte/sc_joystick.h ****    signal->status = RTE_SIGNALSTATUS_INITIALIZED;
 169:.\source\rte/sc_joystick.h **** 
 170:.\source\rte/sc_joystick.h ****    return ret;
 171:.\source\rte/sc_joystick.h **** }
 172:.\source\rte/sc_joystick.h **** 
 173:.\source\rte/sc_joystick.h **** /**************************************************************************************************
 174:.\source\rte/sc_joystick.h **** /* Status and timeout control																						*/
 175:.\source\rte/sc_joystick.h **** /**************************************************************************************************
 176:.\source\rte/sc_joystick.h **** 
 177:.\source\rte/sc_joystick.h **** /**
 178:.\source\rte/sc_joystick.h ****  *  Returns the current signal status of the passed signal instance.
 179:.\source\rte/sc_joystick.h ****  *
 180:.\source\rte/sc_joystick.h ****  * @param  SC_JOYSTICK_t * const signal: Pointer to the signal object
 181:.\source\rte/sc_joystick.h ****  * @return  sig_status_t: The current signal status
 182:.\source\rte/sc_joystick.h ****  *
 183:.\source\rte/sc_joystick.h ****  **/
 184:.\source\rte/sc_joystick.h **** inline RTE_signalStatus_t RTE_SC_JOYSTICK_getStatus( const SC_JOYSTICK_t * const signal )
 185:.\source\rte/sc_joystick.h **** {
 186:.\source\rte/sc_joystick.h ****    return signal->status;
 187:.\source\rte/sc_joystick.h **** }
 188:.\source\rte/sc_joystick.h **** 
 189:.\source\rte/sc_joystick.h **** 
 190:.\source\rte/sc_joystick.h **** /**
 191:.\source\rte/sc_joystick.h ****  *  Sets a new signal status of the passed signal instance by passing the new status.
 192:.\source\rte/sc_joystick.h ****  *
 193:.\source\rte/sc_joystick.h ****  * @param  SC_JOYSTICK_t * const signal: Pointer to the signal object
 194:.\source\rte/sc_joystick.h ****  * @param  const sig_status_t status: New signal status
 195:.\source\rte/sc_joystick.h ****  * @return RC_t: standard return code, currently only RC_SUCCESS
 196:.\source\rte/sc_joystick.h ****  *
 197:.\source\rte/sc_joystick.h ****  */
 198:.\source\rte/sc_joystick.h **** inline RC_t RTE_SC_JOYSTICK_setStatus( SC_JOYSTICK_t * const signal, const RTE_signalStatus_t statu
ARM GAS  C:\Users\abhim\AppData\Local\Temp\ccfE1vKv.s 			page 6


 199:.\source\rte/sc_joystick.h **** {
 200:.\source\rte/sc_joystick.h ****    signal->status = status;
 201:.\source\rte/sc_joystick.h ****    size_t taskNum=0;
 202:.\source\rte/sc_joystick.h ****    
 203:.\source\rte/sc_joystick.h ****    //Fire error events in case of invalid state
 204:.\source\rte/sc_joystick.h ****    if (signal->status == RTE_SIGNALSTATUS_INVALID)
 205:.\source\rte/sc_joystick.h ****    {
 206:.\source\rte/sc_joystick.h **** 	    //Pointer to the Taskarray, containing the tasks receiving the onUpdate events
 207:.\source\rte/sc_joystick.h **** 		TaskTypeArray* pTaskArray = signal->pSigCfg->onErrorTasks;
 208:.\source\rte/sc_joystick.h **** 
 209:.\source\rte/sc_joystick.h **** 		if (0 != signal->pSigCfg->evOnError && NULL != pTaskArray){
 210:.\source\rte/sc_joystick.h **** 			for( taskNum=0 ; taskNum < signal->pSigCfg->onErrorTaskCount ;taskNum++){
 211:.\source\rte/sc_joystick.h **** 				TaskType task = (*pTaskArray)[taskNum];
 212:.\source\rte/sc_joystick.h **** 				SetEvent( task, signal->pSigCfg->evOnError);
 213:.\source\rte/sc_joystick.h **** 			}
 214:.\source\rte/sc_joystick.h **** 		}
 215:.\source\rte/sc_joystick.h ****    }
 216:.\source\rte/sc_joystick.h ****    
 217:.\source\rte/sc_joystick.h ****    return RC_SUCCESS;
 218:.\source\rte/sc_joystick.h **** }
 219:.\source\rte/sc_joystick.h **** 
 220:.\source\rte/sc_joystick.h **** 
 221:.\source\rte/sc_joystick.h **** /**
 222:.\source\rte/sc_joystick.h ****  * Returns the count of refreshing trials (refresh, set or set_raw) that failed.
 223:.\source\rte/sc_joystick.h ****  * Prerquisite: The signal is refreshed cyclically
 224:.\source\rte/sc_joystick.h ****  *
 225:.\source\rte/sc_joystick.h ****  * @param  SC_JOYSTICK_t * const signal: Pointer to the signal object
 226:.\source\rte/sc_joystick.h ****  * @return uint32_t: Number of cycles since the signal has been updated for the last time
 227:.\source\rte/sc_joystick.h ****  */
 228:.\source\rte/sc_joystick.h **** inline uint32_t RTE_SC_JOYSTICK_getAge( const SC_JOYSTICK_t * const signal )
 229:.\source\rte/sc_joystick.h **** {
 230:.\source\rte/sc_joystick.h ****    return signal->age;
 231:.\source\rte/sc_joystick.h **** }
 232:.\source\rte/sc_joystick.h **** 
 233:.\source\rte/sc_joystick.h **** /**
 234:.\source\rte/sc_joystick.h ****  * Should be called by application or driver if no new value can be provided.
 235:.\source\rte/sc_joystick.h ****  * @param  SC_JOYSTICK_t * const signal: Pointer to the signal object
 236:.\source\rte/sc_joystick.h ****  * @param uint32_t increment: incrementvalue, typically in [ms]
 237:.\source\rte/sc_joystick.h ****  * @return void
 238:.\source\rte/sc_joystick.h ****  */
 239:.\source\rte/sc_joystick.h **** inline void RTE_SC_JOYSTICK_incAge(  SC_JOYSTICK_t * const signal , uint32_t increment)
 240:.\source\rte/sc_joystick.h **** {
 241:.\source\rte/sc_joystick.h **** 	   //Hack....
 242:.\source\rte/sc_joystick.h **** 	   if ( 0xFFFF0000 > (signal->age + increment) )
 243:.\source\rte/sc_joystick.h **** 	   {
 244:.\source\rte/sc_joystick.h **** 	      signal->age += increment;
 245:.\source\rte/sc_joystick.h **** 	   }
 246:.\source\rte/sc_joystick.h **** }
 247:.\source\rte/sc_joystick.h **** 
 248:.\source\rte/sc_joystick.h **** 
 249:.\source\rte/sc_joystick.h **** /**************************************************************************************************
 250:.\source\rte/sc_joystick.h **** /* Application Data read/write Interface																			*/
 251:.\source\rte/sc_joystick.h **** /**************************************************************************************************
 252:.\source\rte/sc_joystick.h **** 
 253:.\source\rte/sc_joystick.h **** /**
 254:.\source\rte/sc_joystick.h ****  * Returns the current application value as pointer to the signal payload.
 255:.\source\rte/sc_joystick.h ****  * Careful: This is not threadsafe!!!
ARM GAS  C:\Users\abhim\AppData\Local\Temp\ccfE1vKv.s 			page 7


 256:.\source\rte/sc_joystick.h ****  *
 257:.\source\rte/sc_joystick.h ****  * @param  SC_JOYSTICK_t * const signal: Pointer to the signal object
 258:.\source\rte/sc_joystick.h ****  * @return sc_joystick_data_t*: pointer to the current value of the application data buffer
 259:.\source\rte/sc_joystick.h ****  *
 260:.\source\rte/sc_joystick.h ****  **/
 261:.\source\rte/sc_joystick.h **** inline SC_JOYSTICK_data_t* RTE_SC_JOYSTICK_getPtr( SC_JOYSTICK_t * const signal )
 262:.\source\rte/sc_joystick.h **** {               
 263:.\source\rte/sc_joystick.h ****    //Todo: Critical region cannot be protected using return values																						
 264:.\source\rte/sc_joystick.h ****    return &(signal->value);                                                                        
 265:.\source\rte/sc_joystick.h **** }
 266:.\source\rte/sc_joystick.h **** 
 267:.\source\rte/sc_joystick.h **** /**
 268:.\source\rte/sc_joystick.h ****  * Returns the current application value of the passed signal instance.
 269:.\source\rte/sc_joystick.h ****  *
 270:.\source\rte/sc_joystick.h ****  * @param  SC_JOYSTICK_t * const signal: Pointer to the signal object
 271:.\source\rte/sc_joystick.h ****  * @return sc_joystick_data_t: current value of the application data buffer
 272:.\source\rte/sc_joystick.h ****  *
 273:.\source\rte/sc_joystick.h ****  **/
 274:.\source\rte/sc_joystick.h **** inline SC_JOYSTICK_data_t RTE_SC_JOYSTICK_get( const SC_JOYSTICK_t * const signal )
 275:.\source\rte/sc_joystick.h **** {               
 276:.\source\rte/sc_joystick.h ****    //Todo: Critical region cannot be protected using return values																						
 277:.\source\rte/sc_joystick.h ****    return signal->value;                                                                           
 278:.\source\rte/sc_joystick.h **** }                                                                                                  
 279:.\source\rte/sc_joystick.h ****                                                                                                    
 280:.\source\rte/sc_joystick.h **** /**
 281:.\source\rte/sc_joystick.h ****  * Returns the current application value of the passed signal instance threadsafe.
 282:.\source\rte/sc_joystick.h ****  *
 283:.\source\rte/sc_joystick.h ****  * @param  SC_JOYSTICK_t * const signal: Pointer to the signal object
 284:.\source\rte/sc_joystick.h ****  * @param  SC_JOYSTICK_data_t* data: Pointer to the return data Pointer to the signal object
 285:.\source\rte/sc_joystick.h ****  * @return RC_SUCCESS
 286:.\source\rte/sc_joystick.h ****  *
 287:.\source\rte/sc_joystick.h ****  **/
 288:.\source\rte/sc_joystick.h **** inline RC_t RTE_SC_JOYSTICK_getThreadSafe( const SC_JOYSTICK_t * const signal, SC_JOYSTICK_data_t *
 289:.\source\rte/sc_joystick.h **** {    
 290:.\source\rte/sc_joystick.h ****    if (TRUE == signal->pSigCfg->resourceActive) GetResource(signal->pSigCfg->resource);
 291:.\source\rte/sc_joystick.h ****    *data = signal->value;
 292:.\source\rte/sc_joystick.h ****    if (TRUE == signal->pSigCfg->resourceActive) ReleaseResource(signal->pSigCfg->resource);        
 293:.\source\rte/sc_joystick.h **** 
 294:.\source\rte/sc_joystick.h ****    return RC_SUCCESS;                                                                   
 295:.\source\rte/sc_joystick.h ****    
 296:.\source\rte/sc_joystick.h **** }                                                                                                  
 297:.\source\rte/sc_joystick.h ****                                                                                                    
 298:.\source\rte/sc_joystick.h **** /**
 299:.\source\rte/sc_joystick.h ****  * Sets a new application value to the passed signal instance by passing the new value.
 300:.\source\rte/sc_joystick.h ****  * The corresponding driver raw value will be calculated immediately by using the default conversio
 301:.\source\rte/sc_joystick.h ****  * signal specific scaling function.
 302:.\source\rte/sc_joystick.h ****  * The signal age will be set to 0 and the new status will be 'RTE_SIGNALSTATUS_VALID'.
 303:.\source\rte/sc_joystick.h ****  *
 304:.\source\rte/sc_joystick.h ****  * @param  SC_JOYSTICK_t * const signal: Pointer to the signal object
 305:.\source\rte/sc_joystick.h ****  * @param  sc_joystick_data_t const value: value for the application data buffer
 306:.\source\rte/sc_joystick.h ****  * @return RC_t: standard return code, currently only RC_SUCCESS
 307:.\source\rte/sc_joystick.h ****  *
 308:.\source\rte/sc_joystick.h ****  **/
 309:.\source\rte/sc_joystick.h **** inline RC_t RTE_SC_JOYSTICK_set(SC_JOYSTICK_t * const signal, const SC_JOYSTICK_data_t value  )
 310:.\source\rte/sc_joystick.h **** {
 311:.\source\rte/sc_joystick.h **** 
 312:.\source\rte/sc_joystick.h ****    RC_t ret = RC_SUCCESS;
ARM GAS  C:\Users\abhim\AppData\Local\Temp\ccfE1vKv.s 			page 8


 313:.\source\rte/sc_joystick.h ****    size_t taskNum=0;
 314:.\source\rte/sc_joystick.h **** 
 315:.\source\rte/sc_joystick.h **** 
 316:.\source\rte/sc_joystick.h ****    if (TRUE == signal->pSigCfg->resourceActive) GetResource(signal->pSigCfg->resource);
 317:.\source\rte/sc_joystick.h ****    signal->value  = value;
 318:.\source\rte/sc_joystick.h ****    signal->age    = 0;
 319:.\source\rte/sc_joystick.h ****    signal->status = RTE_SIGNALSTATUS_VALID;
 320:.\source\rte/sc_joystick.h ****    if (TRUE == signal->pSigCfg->resourceActive) ReleaseResource(signal->pSigCfg->resource);
 321:.\source\rte/sc_joystick.h **** 
 322:.\source\rte/sc_joystick.h ****    //Pointer to the Taskarray, containing the tasks receiving the onUpdate events
 323:.\source\rte/sc_joystick.h ****    TaskTypeArray* pTaskArray = signal->pSigCfg->onUpdateTasks;
 324:.\source\rte/sc_joystick.h **** 
 325:.\source\rte/sc_joystick.h ****    if (0 != signal->pSigCfg->evOnUpdate && NULL != pTaskArray){
 326:.\source\rte/sc_joystick.h ****       for( taskNum=0 ; taskNum < signal->pSigCfg->onUpdateTaskCount ;taskNum++){
 327:.\source\rte/sc_joystick.h **** 		  
 328:.\source\rte/sc_joystick.h ****           TaskType task = (*pTaskArray)[taskNum];
 329:.\source\rte/sc_joystick.h **** 	      SetEvent( task, signal->pSigCfg->evOnUpdate);
 330:.\source\rte/sc_joystick.h ****       }
 331:.\source\rte/sc_joystick.h ****    }
 332:.\source\rte/sc_joystick.h **** 
 333:.\source\rte/sc_joystick.h ****    return ret;
 334:.\source\rte/sc_joystick.h **** }                                                                                                  
 335:.\source\rte/sc_joystick.h ****                                                                                                    
 336:.\source\rte/sc_joystick.h ****                                                                                                    
 337:.\source\rte/sc_joystick.h **** /**************************************************************************************************
 338:.\source\rte/sc_joystick.h **** /* Call functions to the connected drivers																			*/
 339:.\source\rte/sc_joystick.h **** /**************************************************************************************************
 340:.\source\rte/sc_joystick.h **** 
 341:.\source\rte/sc_joystick.h ****                                                                                                    
 342:.\source\rte/sc_joystick.h **** /**
 343:.\source\rte/sc_joystick.h ****  *  Calls the connected driver interface to get a new value.
 344:.\source\rte/sc_joystick.h ****  *
 345:.\source\rte/sc_joystick.h ****  * @param SC_JOYSTICK_t * const signal: Pointer to the signal object
 346:.\source\rte/sc_joystick.h ****  * @return  RC_t: Return value of the driver call
 347:.\source\rte/sc_joystick.h ****  *
 348:.\source\rte/sc_joystick.h ****  */
 349:.\source\rte/sc_joystick.h **** inline RC_t RTE_SC_JOYSTICK_pullPort( SC_JOYSTICK_t * const signal )
 350:.\source\rte/sc_joystick.h **** {                                                                                                  
 351:.\source\rte/sc_joystick.h ****    RC_t ret = RC_SUCCESS;
 352:.\source\rte/sc_joystick.h **** 
 353:.\source\rte/sc_joystick.h ****                                                                                                    
 354:.\source\rte/sc_joystick.h ****    if ( NULL != signal->pSigCfg->inDriver )
  45              		.loc 2 354 0
  46 0004 264B     		ldr	r3, .L14
  47 0006 9B68     		ldr	r3, [r3, #8]
  48 0008 1A68     		ldr	r2, [r3]
  49 000a 002A     		cmp	r2, #0
  50 000c 3DD0     		beq	.L10
  51              	.LBB22:
 355:.\source\rte/sc_joystick.h ****    {
 356:.\source\rte/sc_joystick.h **** 	  SC_JOYSTICK_data_t value = signal->value;
  52              		.loc 2 356 0
  53 000e 244A     		ldr	r2, .L14
  54 0010 1288     		ldrh	r2, [r2]
  55 0012 02A8     		add	r0, sp, #8
  56              	.LVL2:
  57 0014 20F8082D 		strh	r2, [r0, #-8]!	@ movhi
ARM GAS  C:\Users\abhim\AppData\Local\Temp\ccfE1vKv.s 			page 9


 357:.\source\rte/sc_joystick.h ****       ret = signal->pSigCfg->inDriver(&value);
  58              		.loc 2 357 0
  59 0018 1B68     		ldr	r3, [r3]
  60 001a 9847     		blx	r3
  61              	.LVL3:
 358:.\source\rte/sc_joystick.h ****                                                                                                    
 359:.\source\rte/sc_joystick.h ****       if ( ret == RC_SUCCESS )                                                                     
  62              		.loc 2 359 0
  63 001c 0546     		mov	r5, r0
  64 001e E8B9     		cbnz	r0, .L3
  65              	.LVL4:
  66 0020 BDF80010 		ldrh	r1, [sp]
  67 0024 ADF80410 		strh	r1, [sp, #4]	@ movhi
  68              	.LVL5:
  69              	.LBB23:
  70              	.LBB24:
 316:.\source\rte/sc_joystick.h ****    signal->value  = value;
  71              		.loc 2 316 0
  72 0028 1D4B     		ldr	r3, .L14
  73 002a 9A68     		ldr	r2, [r3, #8]
 317:.\source\rte/sc_joystick.h ****    signal->age    = 0;
  74              		.loc 2 317 0
  75 002c 1980     		strh	r1, [r3]	@ movhi
 318:.\source\rte/sc_joystick.h ****    signal->status = RTE_SIGNALSTATUS_VALID;
  76              		.loc 2 318 0
  77 002e 0021     		movs	r1, #0
  78 0030 5960     		str	r1, [r3, #4]
 319:.\source\rte/sc_joystick.h ****    if (TRUE == signal->pSigCfg->resourceActive) ReleaseResource(signal->pSigCfg->resource);
  79              		.loc 2 319 0
  80 0032 0221     		movs	r1, #2
  81 0034 9970     		strb	r1, [r3, #2]
 323:.\source\rte/sc_joystick.h **** 
  82              		.loc 2 323 0
  83 0036 5669     		ldr	r6, [r2, #20]
  84              	.LVL6:
 325:.\source\rte/sc_joystick.h ****       for( taskNum=0 ; taskNum < signal->pSigCfg->onUpdateTaskCount ;taskNum++){
  85              		.loc 2 325 0
  86 0038 9368     		ldr	r3, [r2, #8]
  87 003a 3BB3     		cbz	r3, .L2
  88 003c 3EB9     		cbnz	r6, .L11
  89 003e 25E0     		b	.L2
  90              	.LVL7:
  91              	.L6:
  92              	.LBB25:
 329:.\source\rte/sc_joystick.h ****       }
  93              		.loc 2 329 0
  94 0040 9968     		ldr	r1, [r3, #8]
  95 0042 56F82400 		ldr	r0, [r6, r4, lsl #2]
  96 0046 FFF7FEFF 		bl	EE_oo_SetEvent
  97              	.LVL8:
  98              	.LBE25:
 326:.\source\rte/sc_joystick.h **** 		  
  99              		.loc 2 326 0
 100 004a 0134     		adds	r4, r4, #1
 101              	.LVL9:
 102 004c 00E0     		b	.L5
 103              	.LVL10:
ARM GAS  C:\Users\abhim\AppData\Local\Temp\ccfE1vKv.s 			page 10


 104              	.L11:
 325:.\source\rte/sc_joystick.h ****       for( taskNum=0 ; taskNum < signal->pSigCfg->onUpdateTaskCount ;taskNum++){
 105              		.loc 2 325 0
 106 004e 0024     		movs	r4, #0
 107              	.LVL11:
 108              	.L5:
 326:.\source\rte/sc_joystick.h **** 		  
 109              		.loc 2 326 0
 110 0050 134B     		ldr	r3, .L14
 111 0052 9B68     		ldr	r3, [r3, #8]
 112 0054 1A69     		ldr	r2, [r3, #16]
 113 0056 9442     		cmp	r4, r2
 114 0058 F2D3     		bcc	.L6
 115 005a 17E0     		b	.L2
 116              	.LVL12:
 117              	.L3:
 118              	.LBE24:
 119              	.LBE23:
 120              	.LBB26:
 121              	.LBB27:
 200:.\source\rte/sc_joystick.h ****    size_t taskNum=0;
 122              		.loc 2 200 0
 123 005c 104B     		ldr	r3, .L14
 124 005e 0322     		movs	r2, #3
 125 0060 9A70     		strb	r2, [r3, #2]
 126              	.LVL13:
 127              	.LBB28:
 207:.\source\rte/sc_joystick.h **** 
 128              		.loc 2 207 0
 129 0062 9B68     		ldr	r3, [r3, #8]
 130 0064 DE69     		ldr	r6, [r3, #28]
 131              	.LVL14:
 209:.\source\rte/sc_joystick.h **** 			for( taskNum=0 ; taskNum < signal->pSigCfg->onErrorTaskCount ;taskNum++){
 132              		.loc 2 209 0
 133 0066 DB68     		ldr	r3, [r3, #12]
 134 0068 83B1     		cbz	r3, .L2
 135 006a 3EB9     		cbnz	r6, .L12
 136 006c 0EE0     		b	.L2
 137              	.LVL15:
 138              	.L8:
 139              	.LBB29:
 212:.\source\rte/sc_joystick.h **** 			}
 140              		.loc 2 212 0
 141 006e D968     		ldr	r1, [r3, #12]
 142 0070 56F82400 		ldr	r0, [r6, r4, lsl #2]
 143 0074 FFF7FEFF 		bl	EE_oo_SetEvent
 144              	.LVL16:
 145              	.LBE29:
 210:.\source\rte/sc_joystick.h **** 				TaskType task = (*pTaskArray)[taskNum];
 146              		.loc 2 210 0
 147 0078 0134     		adds	r4, r4, #1
 148              	.LVL17:
 149 007a 00E0     		b	.L7
 150              	.LVL18:
 151              	.L12:
 209:.\source\rte/sc_joystick.h **** 			for( taskNum=0 ; taskNum < signal->pSigCfg->onErrorTaskCount ;taskNum++){
 152              		.loc 2 209 0
ARM GAS  C:\Users\abhim\AppData\Local\Temp\ccfE1vKv.s 			page 11


 153 007c 0024     		movs	r4, #0
 154              	.LVL19:
 155              	.L7:
 210:.\source\rte/sc_joystick.h **** 				TaskType task = (*pTaskArray)[taskNum];
 156              		.loc 2 210 0
 157 007e 084B     		ldr	r3, .L14
 158 0080 9B68     		ldr	r3, [r3, #8]
 159 0082 9A69     		ldr	r2, [r3, #24]
 160 0084 9442     		cmp	r4, r2
 161 0086 F2D3     		bcc	.L8
 162 0088 00E0     		b	.L2
 163              	.LVL20:
 164              	.L10:
 165              	.LBE28:
 166              	.LBE27:
 167              	.LBE26:
 168              	.LBE22:
 351:.\source\rte/sc_joystick.h **** 
 169              		.loc 2 351 0
 170 008a 0025     		movs	r5, #0
 171              	.LVL21:
 172              	.L2:
 173              	.LBE21:
 174              	.LBE20:
  44:source\bsw/swc_joystick.c **** 	
  45:source\bsw/swc_joystick.c **** 	/* USER CODE START JOYSTICK_Joystick_readJoystick_run */
  46:source\bsw/swc_joystick.c ****      RC_t result = RTE_SC_JOYSTICK_pullPort(&SO_JOYSTICK_signal);    
  47:source\bsw/swc_joystick.c ****     if(result != RC_SUCCESS){
 175              		.loc 1 47 0
 176 008c 15B1     		cbz	r5, .L9
  48:source\bsw/swc_joystick.c ****         UART_LOG_PutString("Issue with Joystick Driver\r\n");
 177              		.loc 1 48 0
 178 008e 0548     		ldr	r0, .L14+4
 179 0090 FFF7FEFF 		bl	UART_LOG_PutString
 180              	.LVL22:
 181              	.L9:
  49:source\bsw/swc_joystick.c ****     }
  50:source\bsw/swc_joystick.c ****     WD_Alive(WD_joystick);
 182              		.loc 1 50 0
 183 0094 0020     		movs	r0, #0
 184 0096 FFF7FEFF 		bl	WD_Alive
 185              	.LVL23:
  51:source\bsw/swc_joystick.c **** 
  52:source\bsw/swc_joystick.c ****     /* USER CODE END JOYSTICK_Joystick_readJoystick_run */
  53:source\bsw/swc_joystick.c **** }
 186              		.loc 1 53 0
 187 009a 02B0     		add	sp, sp, #8
 188              		.cfi_def_cfa_offset 16
 189              		@ sp needed
 190 009c 70BD     		pop	{r4, r5, r6, pc}
 191              	.L15:
 192 009e 00BF     		.align	2
 193              	.L14:
 194 00a0 00000000 		.word	SO_JOYSTICK_signal
 195 00a4 00000000 		.word	.LC0
 196              		.cfi_endproc
 197              	.LFE132:
ARM GAS  C:\Users\abhim\AppData\Local\Temp\ccfE1vKv.s 			page 12


 198              		.size	JOYSTICK_Joystick_readJoystick_run, .-JOYSTICK_Joystick_readJoystick_run
 199              		.section	.rodata.str1.4,"aMS",%progbits,1
 200              		.align	2
 201              	.LC0:
 202 0000 49737375 		.ascii	"Issue with Joystick Driver\015\012\000"
 202      65207769 
 202      7468204A 
 202      6F797374 
 202      69636B20 
 203              		.text
 204              	.Letext0:
 205              		.file 3 "c:\\program files (x86)\\cypress\\psoc creator\\4.4\\psoc creator\\import\\gnu\\arm\\5.4.
 206              		.file 4 "c:\\program files (x86)\\cypress\\psoc creator\\4.4\\psoc creator\\import\\gnu\\arm\\5.4.
 207              		.file 5 "c:\\program files (x86)\\cypress\\psoc creator\\4.4\\psoc creator\\import\\gnu\\arm\\5.4.
 208              		.file 6 "Generated_Source\\PSoC5/ErikaOS_common_ee_types.inc"
 209              		.file 7 "Generated_Source\\PSoC5/ErikaOS_cortex_mx_ee_cpu.inc"
 210              		.file 8 "Generated_Source\\PSoC5/ErikaOS_ee_oo_common.inc"
 211              		.file 9 "source\\bsw\\global.h"
 212              		.file 10 ".\\source\\rte/rte_types.h"
 213              		.file 11 ".\\source\\rte/rte.h"
 214              		.file 12 ".\\source\\rte/sc_joystick_type.h"
 215              		.file 13 "./watchdog.h"
 216              		.file 14 "Generated_Source\\PSoC5/ErikaOS_ee_oo_intfunc.inc"
 217              		.file 15 "Generated_Source\\PSoC5/ErikaOS_cortex_mx_ee_context.inc"
 218              		.file 16 "Generated_Source\\PSoC5/ErikaOS_common_ee_primitives.inc"
 219              		.file 17 "Generated_Source\\PSoC5/core_cm3.h"
 220              		.file 18 ".\\source\\rte/sp_signalpool.h"
 221              		.file 19 "Generated_Source\\PSoC5/ErikaOS_ee_oo_kernel.inc"
 222              		.file 20 "Generated_Source\\PSoC5/UART_LOG.h"