ARM GAS  C:\Users\abhim\AppData\Local\Temp\ccwzVS1f.s 			page 1


   1              		.syntax unified
   2              		.cpu cortex-m3
   3              		.fpu softvfp
   4              		.eabi_attribute 20, 1
   5              		.eabi_attribute 21, 1
   6              		.eabi_attribute 23, 3
   7              		.eabi_attribute 24, 1
   8              		.eabi_attribute 25, 1
   9              		.eabi_attribute 26, 1
  10              		.eabi_attribute 30, 1
  11              		.eabi_attribute 34, 1
  12              		.eabi_attribute 18, 4
  13              		.thumb
  14              		.syntax unified
  15              		.file	"swc_calc_control.c"
  16              		.text
  17              	.Ltext0:
  18              		.cfi_sections	.debug_frame
  19              		.section	.text.CALC_CONTROL_Calccontrol_calcControl_run,"ax",%progbits
  20              		.align	2
  21              		.global	CALC_CONTROL_Calccontrol_calcControl_run
  22              		.thumb
  23              		.thumb_func
  24              		.type	CALC_CONTROL_Calccontrol_calcControl_run, %function
  25              	CALC_CONTROL_Calccontrol_calcControl_run:
  26              	.LFB132:
  27              		.file 1 "source\\bsw\\swc_calc_control.c"
   1:source\bsw/swc_calc_control.c **** /*
   2:source\bsw/swc_calc_control.c ****  * Filename: swc_calc_control.c
   3:source\bsw/swc_calc_control.c ****  *
   4:source\bsw/swc_calc_control.c ****  * Author: Autogenerated by H-DA RTE Generator, (c) Prof. Fromm
   5:source\bsw/swc_calc_control.c ****  *
   6:source\bsw/swc_calc_control.c ****  * description: Software component
   7:source\bsw/swc_calc_control.c ****  * name: swc_calc_control
   8:source\bsw/swc_calc_control.c ****  * shortname: calc_control
   9:source\bsw/swc_calc_control.c ****  *
  10:source\bsw/swc_calc_control.c ****  */
  11:source\bsw/swc_calc_control.c **** 
  12:source\bsw/swc_calc_control.c **** #include "project.h"
  13:source\bsw/swc_calc_control.c **** #include "global.h"
  14:source\bsw/swc_calc_control.c **** #include "rte.h"
  15:source\bsw/swc_calc_control.c **** #include "rte_types.h"
  16:source\bsw/swc_calc_control.c **** #include "swc_calc_control.h"
  17:source\bsw/swc_calc_control.c **** 
  18:source\bsw/swc_calc_control.c **** 
  19:source\bsw/swc_calc_control.c **** 
  20:source\bsw/swc_calc_control.c **** /* USER CODE START SWC_CALC_CONTROL_INCLUDE */
  21:source\bsw/swc_calc_control.c **** 
  22:source\bsw/swc_calc_control.c **** /* USER CODE END SWC_CALC_CONTROL_INCLUDE */
  23:source\bsw/swc_calc_control.c **** 
  24:source\bsw/swc_calc_control.c **** 
  25:source\bsw/swc_calc_control.c **** #include "sp_signalpool.h"
  26:source\bsw/swc_calc_control.c **** 
  27:source\bsw/swc_calc_control.c **** /* USER CODE START SWC_CALC_CONTROL_USERDEFINITIONS */
  28:source\bsw/swc_calc_control.c **** 
  29:source\bsw/swc_calc_control.c **** /* USER CODE END SWC_CALC_CONTROL_USERDEFINITIONS */
  30:source\bsw/swc_calc_control.c **** 
ARM GAS  C:\Users\abhim\AppData\Local\Temp\ccwzVS1f.s 			page 2


  31:source\bsw/swc_calc_control.c **** 
  32:source\bsw/swc_calc_control.c **** 
  33:source\bsw/swc_calc_control.c **** /*
  34:source\bsw/swc_calc_control.c ****  * component: swc_calc_control
  35:source\bsw/swc_calc_control.c ****  * cycletime: 0
  36:source\bsw/swc_calc_control.c ****  * description: Runnable
  37:source\bsw/swc_calc_control.c ****  * events: ev_joystick_onData
  38:source\bsw/swc_calc_control.c ****  * name: CALC_CONTROL_Calccontrol_calcControl_run
  39:source\bsw/swc_calc_control.c ****  * shortname: Calccontrol_calcControl
  40:source\bsw/swc_calc_control.c ****  * signalIN: so_joystick
  41:source\bsw/swc_calc_control.c ****  * signalOUT: so_speed
  42:source\bsw/swc_calc_control.c ****  * task: tsk_Control
  43:source\bsw/swc_calc_control.c ****  */
  44:source\bsw/swc_calc_control.c **** void CALC_CONTROL_Calccontrol_calcControl_run(RTE_event ev){
  28              		.loc 1 44 0
  29              		.cfi_startproc
  30              		@ args = 0, pretend = 0, frame = 8
  31              		@ frame_needed = 0, uses_anonymous_args = 0
  32              	.LVL0:
  45:source\bsw/swc_calc_control.c **** 	
  46:source\bsw/swc_calc_control.c **** 	/* USER CODE START CALC_CONTROL_Calccontrol_calcControl_run */
  47:source\bsw/swc_calc_control.c ****     if(ev & ev_joystick_onData){
  33              		.loc 1 47 0
  34 0000 10F0010F 		tst	r0, #1
  35 0004 28D0     		beq	.L9
  44:source\bsw/swc_calc_control.c **** 	
  36              		.loc 1 44 0
  37 0006 30B5     		push	{r4, r5, lr}
  38              		.cfi_def_cfa_offset 12
  39              		.cfi_offset 4, -12
  40              		.cfi_offset 5, -8
  41              		.cfi_offset 14, -4
  42 0008 83B0     		sub	sp, sp, #12
  43              		.cfi_def_cfa_offset 24
  44              	.LVL1:
  45              	.LBB8:
  46              	.LBB9:
  47              	.LBB10:
  48              		.file 2 ".\\source\\rte/sc_joystick.h"
   1:.\source\rte/sc_joystick.h **** 
   2:.\source\rte/sc_joystick.h **** 
   3:.\source\rte/sc_joystick.h **** /**
   4:.\source\rte/sc_joystick.h ****  *  file    SC_JOYSTICK_signal.h
   5:.\source\rte/sc_joystick.h ****  *
   6:.\source\rte/sc_joystick.h ****  *  brief   signal base class for signal sc_joystick
   7:.\source\rte/sc_joystick.h ****  *
   8:.\source\rte/sc_joystick.h ****  *  author  Autogenerated, Peter Fromm       <peter.fromm@h-da.de>
   9:.\source\rte/sc_joystick.h ****  *
  10:.\source\rte/sc_joystick.h ****  * description: signal is updated every 10ms and is used by the control logic to compute the vehicl
  11:.\source\rte/sc_joystick.h ****  * name: sc_joystick
  12:.\source\rte/sc_joystick.h ****  * shortname: joystick
  13:.\source\rte/sc_joystick.h ****  *
  14:.\source\rte/sc_joystick.h ****  */
  15:.\source\rte/sc_joystick.h **** 
  16:.\source\rte/sc_joystick.h **** 
  17:.\source\rte/sc_joystick.h **** 
  18:.\source\rte/sc_joystick.h **** #ifndef SC_JOYSTICK_SIGNAL_H_INCLUDED
ARM GAS  C:\Users\abhim\AppData\Local\Temp\ccwzVS1f.s 			page 3


  19:.\source\rte/sc_joystick.h **** #define SC_JOYSTICK_SIGNAL_H_INCLUDED
  20:.\source\rte/sc_joystick.h **** 
  21:.\source\rte/sc_joystick.h **** /*================================================[ public includes  ]=============================
  22:.\source\rte/sc_joystick.h **** #include "global.h"
  23:.\source\rte/sc_joystick.h **** #include "project.h"
  24:.\source\rte/sc_joystick.h **** #include "rte.h"
  25:.\source\rte/sc_joystick.h **** #include "rte_types.h"
  26:.\source\rte/sc_joystick.h **** 
  27:.\source\rte/sc_joystick.h **** #include "sc_joystick_type.h"
  28:.\source\rte/sc_joystick.h **** 
  29:.\source\rte/sc_joystick.h **** 
  30:.\source\rte/sc_joystick.h **** /**************************************************************************************************
  31:.\source\rte/sc_joystick.h **** /* The driver API block																						*/
  32:.\source\rte/sc_joystick.h **** /**************************************************************************************************
  33:.\source\rte/sc_joystick.h ****                                                                                                    
  34:.\source\rte/sc_joystick.h **** /**
  35:.\source\rte/sc_joystick.h ****  *  Definition of function types for driver interfaces.
  36:.\source\rte/sc_joystick.h ****  *  I-Port
  37:.\source\rte/sc_joystick.h ****  */
  38:.\source\rte/sc_joystick.h **** typedef RC_t (*SC_JOYSTICK_driverIn_t)(SC_JOYSTICK_data_t * const);
  39:.\source\rte/sc_joystick.h **** 
  40:.\source\rte/sc_joystick.h **** /**
  41:.\source\rte/sc_joystick.h ****  *  Definition of function types for driver interfaces.
  42:.\source\rte/sc_joystick.h ****  *  O-Port
  43:.\source\rte/sc_joystick.h ****  */
  44:.\source\rte/sc_joystick.h **** typedef RC_t (*SC_JOYSTICK_driverOut_t)( const SC_JOYSTICK_data_t * const);
  45:.\source\rte/sc_joystick.h **** 
  46:.\source\rte/sc_joystick.h **** 
  47:.\source\rte/sc_joystick.h **** /**************************************************************************************************
  48:.\source\rte/sc_joystick.h **** /* The signal configuration API block																				*/
  49:.\source\rte/sc_joystick.h **** /**************************************************************************************************
  50:.\source\rte/sc_joystick.h **** 
  51:.\source\rte/sc_joystick.h **** /**
  52:.\source\rte/sc_joystick.h ****  * Instances of the struct SC_JOYSTICK_cfg_t represent the signal object configuration.
  53:.\source\rte/sc_joystick.h ****  */
  54:.\source\rte/sc_joystick.h **** struct SC_JOYSTICK_cfg_s
  55:.\source\rte/sc_joystick.h **** {
  56:.\source\rte/sc_joystick.h ****     /**
  57:.\source\rte/sc_joystick.h ****      * Function pointer to the input driver
  58:.\source\rte/sc_joystick.h ****      */
  59:.\source\rte/sc_joystick.h ****     SC_JOYSTICK_driverIn_t const inDriver;
  60:.\source\rte/sc_joystick.h **** 
  61:.\source\rte/sc_joystick.h ****     /**
  62:.\source\rte/sc_joystick.h ****      * Function pointer to the output driver table
  63:.\source\rte/sc_joystick.h ****      */
  64:.\source\rte/sc_joystick.h ****    SC_JOYSTICK_driverOut_t const outDriver;
  65:.\source\rte/sc_joystick.h ****    
  66:.\source\rte/sc_joystick.h ****     /**
  67:.\source\rte/sc_joystick.h ****      * Event onUpdate
  68:.\source\rte/sc_joystick.h ****      */
  69:.\source\rte/sc_joystick.h ****     EventMaskType const evOnUpdate;
  70:.\source\rte/sc_joystick.h ****     
  71:.\source\rte/sc_joystick.h ****     
  72:.\source\rte/sc_joystick.h ****     /**
  73:.\source\rte/sc_joystick.h ****      * Event onError
  74:.\source\rte/sc_joystick.h ****      */
  75:.\source\rte/sc_joystick.h ****     EventMaskType const evOnError;
ARM GAS  C:\Users\abhim\AppData\Local\Temp\ccwzVS1f.s 			page 4


  76:.\source\rte/sc_joystick.h ****     
  77:.\source\rte/sc_joystick.h ****     /**
  78:.\source\rte/sc_joystick.h ****      * Task Count onUpdate
  79:.\source\rte/sc_joystick.h ****      */
  80:.\source\rte/sc_joystick.h ****     size_t const onUpdateTaskCount;
  81:.\source\rte/sc_joystick.h **** 
  82:.\source\rte/sc_joystick.h ****     /**
  83:.\source\rte/sc_joystick.h ****      * Task List onUpdate
  84:.\source\rte/sc_joystick.h ****      */
  85:.\source\rte/sc_joystick.h ****     TaskTypeArray* const onUpdateTasks;
  86:.\source\rte/sc_joystick.h ****     
  87:.\source\rte/sc_joystick.h ****     /**
  88:.\source\rte/sc_joystick.h ****      * Task Count onError
  89:.\source\rte/sc_joystick.h ****      */
  90:.\source\rte/sc_joystick.h ****     size_t const onErrorTaskCount;
  91:.\source\rte/sc_joystick.h **** 
  92:.\source\rte/sc_joystick.h ****     /**
  93:.\source\rte/sc_joystick.h ****      * Task List onError
  94:.\source\rte/sc_joystick.h ****      */
  95:.\source\rte/sc_joystick.h ****     TaskTypeArray* const onErrorTasks;
  96:.\source\rte/sc_joystick.h **** 	
  97:.\source\rte/sc_joystick.h **** 	
  98:.\source\rte/sc_joystick.h **** 	/**
  99:.\source\rte/sc_joystick.h **** 	 * Ressourse is active? We need an additional boolean as a ressource value 0 is valid.
 100:.\source\rte/sc_joystick.h **** 	 */
 101:.\source\rte/sc_joystick.h **** 	 boolean_t const resourceActive;
 102:.\source\rte/sc_joystick.h **** 	 
 103:.\source\rte/sc_joystick.h **** 	/**
 104:.\source\rte/sc_joystick.h **** 	 * Ressourse 
 105:.\source\rte/sc_joystick.h **** 	 */
 106:.\source\rte/sc_joystick.h **** 	 ResourceType const resource;
 107:.\source\rte/sc_joystick.h **** 
 108:.\source\rte/sc_joystick.h **** };                                                                                                 
 109:.\source\rte/sc_joystick.h **** typedef const struct SC_JOYSTICK_cfg_s SC_JOYSTICK_cfg_t;
 110:.\source\rte/sc_joystick.h ****                               
 111:.\source\rte/sc_joystick.h **** /**************************************************************************************************
 112:.\source\rte/sc_joystick.h **** /* The data interface block																							*/
 113:.\source\rte/sc_joystick.h **** /**************************************************************************************************
 114:.\source\rte/sc_joystick.h **** 
 115:.\source\rte/sc_joystick.h ****                                                                                                    
 116:.\source\rte/sc_joystick.h **** 							  
 117:.\source\rte/sc_joystick.h **** /**
 118:.\source\rte/sc_joystick.h ****  * Instances of the struct SC_JOYSTICK_t represent the signal objects.
 119:.\source\rte/sc_joystick.h ****  * A signal object contains the current application value 'value' as well as relevant meta data.
 120:.\source\rte/sc_joystick.h ****  */
 121:.\source\rte/sc_joystick.h **** struct SC_JOYSTICK_s
 122:.\source\rte/sc_joystick.h **** {                                                                                                  
 123:.\source\rte/sc_joystick.h **** 
 124:.\source\rte/sc_joystick.h **** 	/**
 125:.\source\rte/sc_joystick.h **** 	 * Data buffer for the application value
 126:.\source\rte/sc_joystick.h **** 	 */
 127:.\source\rte/sc_joystick.h ****     SC_JOYSTICK_data_t value;
 128:.\source\rte/sc_joystick.h **** 
 129:.\source\rte/sc_joystick.h ****     /**
 130:.\source\rte/sc_joystick.h ****      * Current signal status
 131:.\source\rte/sc_joystick.h ****      */
 132:.\source\rte/sc_joystick.h ****     RTE_signalStatus_t status;
ARM GAS  C:\Users\abhim\AppData\Local\Temp\ccwzVS1f.s 			page 5


 133:.\source\rte/sc_joystick.h **** 
 134:.\source\rte/sc_joystick.h ****     /**
 135:.\source\rte/sc_joystick.h ****      * Current age of the signal (in calling cycles)
 136:.\source\rte/sc_joystick.h ****      */
 137:.\source\rte/sc_joystick.h ****     uint32_t age;
 138:.\source\rte/sc_joystick.h **** 
 139:.\source\rte/sc_joystick.h ****     /**
 140:.\source\rte/sc_joystick.h ****      * Pointer to the signal configuration
 141:.\source\rte/sc_joystick.h ****      */
 142:.\source\rte/sc_joystick.h **** 	const SC_JOYSTICK_cfg_t * const    pSigCfg;
 143:.\source\rte/sc_joystick.h **** 
 144:.\source\rte/sc_joystick.h **** };                                                                                                 
 145:.\source\rte/sc_joystick.h **** typedef struct SC_JOYSTICK_s SC_JOYSTICK_t;
 146:.\source\rte/sc_joystick.h **** 
 147:.\source\rte/sc_joystick.h **** /**************************************************************************************************
 148:.\source\rte/sc_joystick.h **** /* Signal initialisation   																							*/
 149:.\source\rte/sc_joystick.h **** /**************************************************************************************************
 150:.\source\rte/sc_joystick.h **** 
 151:.\source\rte/sc_joystick.h **** /**
 152:.\source\rte/sc_joystick.h ****  * Initializes a signal instance with a passed init value.
 153:.\source\rte/sc_joystick.h ****  * Depending on the configured conversion or scaling function the raw_value will be calculated.
 154:.\source\rte/sc_joystick.h ****  * Signal status will change from RTE_SIGNALSTATUS_STARTUP to RTE_SIGNALSTATUS_INITIALIZED.
 155:.\source\rte/sc_joystick.h ****  *
 156:.\source\rte/sc_joystick.h ****  * @param  SC_JOYSTICK_t * const signal: Pointer to the signal object which will be initialised
 157:.\source\rte/sc_joystick.h ****  * @return RC_t: standard return code, currently only RC_SUCCESS
 158:.\source\rte/sc_joystick.h ****  *
 159:.\source\rte/sc_joystick.h ****  **/
 160:.\source\rte/sc_joystick.h **** inline RC_t RTE_SC_JOYSTICK_init( SC_JOYSTICK_t * const signal )
 161:.\source\rte/sc_joystick.h **** {                                                                                                  
 162:.\source\rte/sc_joystick.h **** 
 163:.\source\rte/sc_joystick.h ****    RC_t ret = RC_SUCCESS;
 164:.\source\rte/sc_joystick.h **** 
 165:.\source\rte/sc_joystick.h ****    //Set value and raw value
 166:.\source\rte/sc_joystick.h ****    signal->value  = SC_JOYSTICK_INIT_DATA;
 167:.\source\rte/sc_joystick.h ****    signal->age    = 0;
 168:.\source\rte/sc_joystick.h ****    signal->status = RTE_SIGNALSTATUS_INITIALIZED;
 169:.\source\rte/sc_joystick.h **** 
 170:.\source\rte/sc_joystick.h ****    return ret;
 171:.\source\rte/sc_joystick.h **** }
 172:.\source\rte/sc_joystick.h **** 
 173:.\source\rte/sc_joystick.h **** /**************************************************************************************************
 174:.\source\rte/sc_joystick.h **** /* Status and timeout control																						*/
 175:.\source\rte/sc_joystick.h **** /**************************************************************************************************
 176:.\source\rte/sc_joystick.h **** 
 177:.\source\rte/sc_joystick.h **** /**
 178:.\source\rte/sc_joystick.h ****  *  Returns the current signal status of the passed signal instance.
 179:.\source\rte/sc_joystick.h ****  *
 180:.\source\rte/sc_joystick.h ****  * @param  SC_JOYSTICK_t * const signal: Pointer to the signal object
 181:.\source\rte/sc_joystick.h ****  * @return  sig_status_t: The current signal status
 182:.\source\rte/sc_joystick.h ****  *
 183:.\source\rte/sc_joystick.h ****  **/
 184:.\source\rte/sc_joystick.h **** inline RTE_signalStatus_t RTE_SC_JOYSTICK_getStatus( const SC_JOYSTICK_t * const signal )
 185:.\source\rte/sc_joystick.h **** {
 186:.\source\rte/sc_joystick.h ****    return signal->status;
 187:.\source\rte/sc_joystick.h **** }
 188:.\source\rte/sc_joystick.h **** 
 189:.\source\rte/sc_joystick.h **** 
ARM GAS  C:\Users\abhim\AppData\Local\Temp\ccwzVS1f.s 			page 6


 190:.\source\rte/sc_joystick.h **** /**
 191:.\source\rte/sc_joystick.h ****  *  Sets a new signal status of the passed signal instance by passing the new status.
 192:.\source\rte/sc_joystick.h ****  *
 193:.\source\rte/sc_joystick.h ****  * @param  SC_JOYSTICK_t * const signal: Pointer to the signal object
 194:.\source\rte/sc_joystick.h ****  * @param  const sig_status_t status: New signal status
 195:.\source\rte/sc_joystick.h ****  * @return RC_t: standard return code, currently only RC_SUCCESS
 196:.\source\rte/sc_joystick.h ****  *
 197:.\source\rte/sc_joystick.h ****  */
 198:.\source\rte/sc_joystick.h **** inline RC_t RTE_SC_JOYSTICK_setStatus( SC_JOYSTICK_t * const signal, const RTE_signalStatus_t statu
 199:.\source\rte/sc_joystick.h **** {
 200:.\source\rte/sc_joystick.h ****    signal->status = status;
 201:.\source\rte/sc_joystick.h ****    size_t taskNum=0;
 202:.\source\rte/sc_joystick.h ****    
 203:.\source\rte/sc_joystick.h ****    //Fire error events in case of invalid state
 204:.\source\rte/sc_joystick.h ****    if (signal->status == RTE_SIGNALSTATUS_INVALID)
 205:.\source\rte/sc_joystick.h ****    {
 206:.\source\rte/sc_joystick.h **** 	    //Pointer to the Taskarray, containing the tasks receiving the onUpdate events
 207:.\source\rte/sc_joystick.h **** 		TaskTypeArray* pTaskArray = signal->pSigCfg->onErrorTasks;
 208:.\source\rte/sc_joystick.h **** 
 209:.\source\rte/sc_joystick.h **** 		if (0 != signal->pSigCfg->evOnError && NULL != pTaskArray){
 210:.\source\rte/sc_joystick.h **** 			for( taskNum=0 ; taskNum < signal->pSigCfg->onErrorTaskCount ;taskNum++){
 211:.\source\rte/sc_joystick.h **** 				TaskType task = (*pTaskArray)[taskNum];
 212:.\source\rte/sc_joystick.h **** 				SetEvent( task, signal->pSigCfg->evOnError);
 213:.\source\rte/sc_joystick.h **** 			}
 214:.\source\rte/sc_joystick.h **** 		}
 215:.\source\rte/sc_joystick.h ****    }
 216:.\source\rte/sc_joystick.h ****    
 217:.\source\rte/sc_joystick.h ****    return RC_SUCCESS;
 218:.\source\rte/sc_joystick.h **** }
 219:.\source\rte/sc_joystick.h **** 
 220:.\source\rte/sc_joystick.h **** 
 221:.\source\rte/sc_joystick.h **** /**
 222:.\source\rte/sc_joystick.h ****  * Returns the count of refreshing trials (refresh, set or set_raw) that failed.
 223:.\source\rte/sc_joystick.h ****  * Prerquisite: The signal is refreshed cyclically
 224:.\source\rte/sc_joystick.h ****  *
 225:.\source\rte/sc_joystick.h ****  * @param  SC_JOYSTICK_t * const signal: Pointer to the signal object
 226:.\source\rte/sc_joystick.h ****  * @return uint32_t: Number of cycles since the signal has been updated for the last time
 227:.\source\rte/sc_joystick.h ****  */
 228:.\source\rte/sc_joystick.h **** inline uint32_t RTE_SC_JOYSTICK_getAge( const SC_JOYSTICK_t * const signal )
 229:.\source\rte/sc_joystick.h **** {
 230:.\source\rte/sc_joystick.h ****    return signal->age;
 231:.\source\rte/sc_joystick.h **** }
 232:.\source\rte/sc_joystick.h **** 
 233:.\source\rte/sc_joystick.h **** /**
 234:.\source\rte/sc_joystick.h ****  * Should be called by application or driver if no new value can be provided.
 235:.\source\rte/sc_joystick.h ****  * @param  SC_JOYSTICK_t * const signal: Pointer to the signal object
 236:.\source\rte/sc_joystick.h ****  * @param uint32_t increment: incrementvalue, typically in [ms]
 237:.\source\rte/sc_joystick.h ****  * @return void
 238:.\source\rte/sc_joystick.h ****  */
 239:.\source\rte/sc_joystick.h **** inline void RTE_SC_JOYSTICK_incAge(  SC_JOYSTICK_t * const signal , uint32_t increment)
 240:.\source\rte/sc_joystick.h **** {
 241:.\source\rte/sc_joystick.h **** 	   //Hack....
 242:.\source\rte/sc_joystick.h **** 	   if ( 0xFFFF0000 > (signal->age + increment) )
 243:.\source\rte/sc_joystick.h **** 	   {
 244:.\source\rte/sc_joystick.h **** 	      signal->age += increment;
 245:.\source\rte/sc_joystick.h **** 	   }
 246:.\source\rte/sc_joystick.h **** }
ARM GAS  C:\Users\abhim\AppData\Local\Temp\ccwzVS1f.s 			page 7


 247:.\source\rte/sc_joystick.h **** 
 248:.\source\rte/sc_joystick.h **** 
 249:.\source\rte/sc_joystick.h **** /**************************************************************************************************
 250:.\source\rte/sc_joystick.h **** /* Application Data read/write Interface																			*/
 251:.\source\rte/sc_joystick.h **** /**************************************************************************************************
 252:.\source\rte/sc_joystick.h **** 
 253:.\source\rte/sc_joystick.h **** /**
 254:.\source\rte/sc_joystick.h ****  * Returns the current application value as pointer to the signal payload.
 255:.\source\rte/sc_joystick.h ****  * Careful: This is not threadsafe!!!
 256:.\source\rte/sc_joystick.h ****  *
 257:.\source\rte/sc_joystick.h ****  * @param  SC_JOYSTICK_t * const signal: Pointer to the signal object
 258:.\source\rte/sc_joystick.h ****  * @return sc_joystick_data_t*: pointer to the current value of the application data buffer
 259:.\source\rte/sc_joystick.h ****  *
 260:.\source\rte/sc_joystick.h ****  **/
 261:.\source\rte/sc_joystick.h **** inline SC_JOYSTICK_data_t* RTE_SC_JOYSTICK_getPtr( SC_JOYSTICK_t * const signal )
 262:.\source\rte/sc_joystick.h **** {               
 263:.\source\rte/sc_joystick.h ****    //Todo: Critical region cannot be protected using return values																						
 264:.\source\rte/sc_joystick.h ****    return &(signal->value);                                                                        
 265:.\source\rte/sc_joystick.h **** }
 266:.\source\rte/sc_joystick.h **** 
 267:.\source\rte/sc_joystick.h **** /**
 268:.\source\rte/sc_joystick.h ****  * Returns the current application value of the passed signal instance.
 269:.\source\rte/sc_joystick.h ****  *
 270:.\source\rte/sc_joystick.h ****  * @param  SC_JOYSTICK_t * const signal: Pointer to the signal object
 271:.\source\rte/sc_joystick.h ****  * @return sc_joystick_data_t: current value of the application data buffer
 272:.\source\rte/sc_joystick.h ****  *
 273:.\source\rte/sc_joystick.h ****  **/
 274:.\source\rte/sc_joystick.h **** inline SC_JOYSTICK_data_t RTE_SC_JOYSTICK_get( const SC_JOYSTICK_t * const signal )
 275:.\source\rte/sc_joystick.h **** {               
 276:.\source\rte/sc_joystick.h ****    //Todo: Critical region cannot be protected using return values																						
 277:.\source\rte/sc_joystick.h ****    return signal->value;                                                                           
  49              		.loc 2 277 0
  50 000a 144B     		ldr	r3, .L10
  51 000c 1B88     		ldrh	r3, [r3]
  52 000e ADF80430 		strh	r3, [sp, #4]	@ movhi
  53 0012 ADF80030 		strh	r3, [sp]	@ movhi
  54              	.LVL2:
  55              	.LBE10:
  56              	.LBE9:
  48:source\bsw/swc_calc_control.c ****         SC_JOYSTICK_data_t joystickData = RTE_SC_JOYSTICK_get(&SO_JOYSTICK_signal);
  49:source\bsw/swc_calc_control.c ****         SC_SPEED_data_t speed = SC_SPEED_INIT_DATA;
  57              		.loc 1 49 0
  58 0016 0021     		movs	r1, #0
  59              	.LVL3:
  50:source\bsw/swc_calc_control.c ****         if(joystickData.y > 0){         
  60              		.loc 1 50 0
  61 0018 43F30723 		sbfx	r3, r3, #8, #8
  62 001c 8B42     		cmp	r3, r1
  63 001e 00DD     		ble	.L3
  51:source\bsw/swc_calc_control.c ****            speed.speedVal = 2*joystickData.y;
  64              		.loc 1 51 0
  65 0020 5900     		lsls	r1, r3, #1
  66              	.L3:
  67              	.LVL4:
  68              	.LBB11:
  69              	.LBB12:
  70              		.file 3 ".\\source\\rte/sc_speed.h"
ARM GAS  C:\Users\abhim\AppData\Local\Temp\ccwzVS1f.s 			page 8


   1:.\source\rte/sc_speed.h **** 
   2:.\source\rte/sc_speed.h **** 
   3:.\source\rte/sc_speed.h **** /**
   4:.\source\rte/sc_speed.h ****  *  file    SC_SPEED_signal.h
   5:.\source\rte/sc_speed.h ****  *
   6:.\source\rte/sc_speed.h ****  *  brief   signal base class for signal sc_speed
   7:.\source\rte/sc_speed.h ****  *
   8:.\source\rte/sc_speed.h ****  *  author  Autogenerated, Peter Fromm       <peter.fromm@h-da.de>
   9:.\source\rte/sc_speed.h ****  *
  10:.\source\rte/sc_speed.h ****  * description: signal is updated every time the control logic (run_calcControl) processes new joys
  11:.\source\rte/sc_speed.h ****  * name: sc_speed
  12:.\source\rte/sc_speed.h ****  * shortname: speed
  13:.\source\rte/sc_speed.h ****  *
  14:.\source\rte/sc_speed.h ****  */
  15:.\source\rte/sc_speed.h **** 
  16:.\source\rte/sc_speed.h **** 
  17:.\source\rte/sc_speed.h **** 
  18:.\source\rte/sc_speed.h **** #ifndef SC_SPEED_SIGNAL_H_INCLUDED
  19:.\source\rte/sc_speed.h **** #define SC_SPEED_SIGNAL_H_INCLUDED
  20:.\source\rte/sc_speed.h **** 
  21:.\source\rte/sc_speed.h **** /*================================================[ public includes  ]=============================
  22:.\source\rte/sc_speed.h **** #include "global.h"
  23:.\source\rte/sc_speed.h **** #include "project.h"
  24:.\source\rte/sc_speed.h **** #include "rte.h"
  25:.\source\rte/sc_speed.h **** #include "rte_types.h"
  26:.\source\rte/sc_speed.h **** 
  27:.\source\rte/sc_speed.h **** #include "sc_speed_type.h"
  28:.\source\rte/sc_speed.h **** 
  29:.\source\rte/sc_speed.h **** 
  30:.\source\rte/sc_speed.h **** /**************************************************************************************************
  31:.\source\rte/sc_speed.h **** /* The driver API block																						*/
  32:.\source\rte/sc_speed.h **** /**************************************************************************************************
  33:.\source\rte/sc_speed.h ****                                                                                                    
  34:.\source\rte/sc_speed.h **** /**
  35:.\source\rte/sc_speed.h ****  *  Definition of function types for driver interfaces.
  36:.\source\rte/sc_speed.h ****  *  I-Port
  37:.\source\rte/sc_speed.h ****  */
  38:.\source\rte/sc_speed.h **** typedef RC_t (*SC_SPEED_driverIn_t)(SC_SPEED_data_t * const);
  39:.\source\rte/sc_speed.h **** 
  40:.\source\rte/sc_speed.h **** /**
  41:.\source\rte/sc_speed.h ****  *  Definition of function types for driver interfaces.
  42:.\source\rte/sc_speed.h ****  *  O-Port
  43:.\source\rte/sc_speed.h ****  */
  44:.\source\rte/sc_speed.h **** typedef RC_t (*SC_SPEED_driverOut_t)( const SC_SPEED_data_t * const);
  45:.\source\rte/sc_speed.h **** 
  46:.\source\rte/sc_speed.h **** 
  47:.\source\rte/sc_speed.h **** /**************************************************************************************************
  48:.\source\rte/sc_speed.h **** /* The signal configuration API block																				*/
  49:.\source\rte/sc_speed.h **** /**************************************************************************************************
  50:.\source\rte/sc_speed.h **** 
  51:.\source\rte/sc_speed.h **** /**
  52:.\source\rte/sc_speed.h ****  * Instances of the struct SC_SPEED_cfg_t represent the signal object configuration.
  53:.\source\rte/sc_speed.h ****  */
  54:.\source\rte/sc_speed.h **** struct SC_SPEED_cfg_s
  55:.\source\rte/sc_speed.h **** {
  56:.\source\rte/sc_speed.h ****     /**
  57:.\source\rte/sc_speed.h ****      * Function pointer to the input driver
ARM GAS  C:\Users\abhim\AppData\Local\Temp\ccwzVS1f.s 			page 9


  58:.\source\rte/sc_speed.h ****      */
  59:.\source\rte/sc_speed.h ****     SC_SPEED_driverIn_t const inDriver;
  60:.\source\rte/sc_speed.h **** 
  61:.\source\rte/sc_speed.h ****     /**
  62:.\source\rte/sc_speed.h ****      * Function pointer to the output driver table
  63:.\source\rte/sc_speed.h ****      */
  64:.\source\rte/sc_speed.h ****    SC_SPEED_driverOut_t const outDriver;
  65:.\source\rte/sc_speed.h ****    
  66:.\source\rte/sc_speed.h ****     /**
  67:.\source\rte/sc_speed.h ****      * Event onUpdate
  68:.\source\rte/sc_speed.h ****      */
  69:.\source\rte/sc_speed.h ****     EventMaskType const evOnUpdate;
  70:.\source\rte/sc_speed.h ****     
  71:.\source\rte/sc_speed.h ****     
  72:.\source\rte/sc_speed.h ****     /**
  73:.\source\rte/sc_speed.h ****      * Event onError
  74:.\source\rte/sc_speed.h ****      */
  75:.\source\rte/sc_speed.h ****     EventMaskType const evOnError;
  76:.\source\rte/sc_speed.h ****     
  77:.\source\rte/sc_speed.h ****     /**
  78:.\source\rte/sc_speed.h ****      * Task Count onUpdate
  79:.\source\rte/sc_speed.h ****      */
  80:.\source\rte/sc_speed.h ****     size_t const onUpdateTaskCount;
  81:.\source\rte/sc_speed.h **** 
  82:.\source\rte/sc_speed.h ****     /**
  83:.\source\rte/sc_speed.h ****      * Task List onUpdate
  84:.\source\rte/sc_speed.h ****      */
  85:.\source\rte/sc_speed.h ****     TaskTypeArray* const onUpdateTasks;
  86:.\source\rte/sc_speed.h ****     
  87:.\source\rte/sc_speed.h ****     /**
  88:.\source\rte/sc_speed.h ****      * Task Count onError
  89:.\source\rte/sc_speed.h ****      */
  90:.\source\rte/sc_speed.h ****     size_t const onErrorTaskCount;
  91:.\source\rte/sc_speed.h **** 
  92:.\source\rte/sc_speed.h ****     /**
  93:.\source\rte/sc_speed.h ****      * Task List onError
  94:.\source\rte/sc_speed.h ****      */
  95:.\source\rte/sc_speed.h ****     TaskTypeArray* const onErrorTasks;
  96:.\source\rte/sc_speed.h **** 	
  97:.\source\rte/sc_speed.h **** 	
  98:.\source\rte/sc_speed.h **** 	/**
  99:.\source\rte/sc_speed.h **** 	 * Ressourse is active? We need an additional boolean as a ressource value 0 is valid.
 100:.\source\rte/sc_speed.h **** 	 */
 101:.\source\rte/sc_speed.h **** 	 boolean_t const resourceActive;
 102:.\source\rte/sc_speed.h **** 	 
 103:.\source\rte/sc_speed.h **** 	/**
 104:.\source\rte/sc_speed.h **** 	 * Ressourse 
 105:.\source\rte/sc_speed.h **** 	 */
 106:.\source\rte/sc_speed.h **** 	 ResourceType const resource;
 107:.\source\rte/sc_speed.h **** 
 108:.\source\rte/sc_speed.h **** };                                                                                                 
 109:.\source\rte/sc_speed.h **** typedef const struct SC_SPEED_cfg_s SC_SPEED_cfg_t;
 110:.\source\rte/sc_speed.h ****                               
 111:.\source\rte/sc_speed.h **** /**************************************************************************************************
 112:.\source\rte/sc_speed.h **** /* The data interface block																							*/
 113:.\source\rte/sc_speed.h **** /**************************************************************************************************
 114:.\source\rte/sc_speed.h **** 
ARM GAS  C:\Users\abhim\AppData\Local\Temp\ccwzVS1f.s 			page 10


 115:.\source\rte/sc_speed.h ****                                                                                                    
 116:.\source\rte/sc_speed.h **** 							  
 117:.\source\rte/sc_speed.h **** /**
 118:.\source\rte/sc_speed.h ****  * Instances of the struct SC_SPEED_t represent the signal objects.
 119:.\source\rte/sc_speed.h ****  * A signal object contains the current application value 'value' as well as relevant meta data.
 120:.\source\rte/sc_speed.h ****  */
 121:.\source\rte/sc_speed.h **** struct SC_SPEED_s
 122:.\source\rte/sc_speed.h **** {                                                                                                  
 123:.\source\rte/sc_speed.h **** 
 124:.\source\rte/sc_speed.h **** 	/**
 125:.\source\rte/sc_speed.h **** 	 * Data buffer for the application value
 126:.\source\rte/sc_speed.h **** 	 */
 127:.\source\rte/sc_speed.h ****     SC_SPEED_data_t value;
 128:.\source\rte/sc_speed.h **** 
 129:.\source\rte/sc_speed.h ****     /**
 130:.\source\rte/sc_speed.h ****      * Current signal status
 131:.\source\rte/sc_speed.h ****      */
 132:.\source\rte/sc_speed.h ****     RTE_signalStatus_t status;
 133:.\source\rte/sc_speed.h **** 
 134:.\source\rte/sc_speed.h ****     /**
 135:.\source\rte/sc_speed.h ****      * Current age of the signal (in calling cycles)
 136:.\source\rte/sc_speed.h ****      */
 137:.\source\rte/sc_speed.h ****     uint32_t age;
 138:.\source\rte/sc_speed.h **** 
 139:.\source\rte/sc_speed.h ****     /**
 140:.\source\rte/sc_speed.h ****      * Pointer to the signal configuration
 141:.\source\rte/sc_speed.h ****      */
 142:.\source\rte/sc_speed.h **** 	const SC_SPEED_cfg_t * const    pSigCfg;
 143:.\source\rte/sc_speed.h **** 
 144:.\source\rte/sc_speed.h **** };                                                                                                 
 145:.\source\rte/sc_speed.h **** typedef struct SC_SPEED_s SC_SPEED_t;
 146:.\source\rte/sc_speed.h **** 
 147:.\source\rte/sc_speed.h **** /**************************************************************************************************
 148:.\source\rte/sc_speed.h **** /* Signal initialisation   																							*/
 149:.\source\rte/sc_speed.h **** /**************************************************************************************************
 150:.\source\rte/sc_speed.h **** 
 151:.\source\rte/sc_speed.h **** /**
 152:.\source\rte/sc_speed.h ****  * Initializes a signal instance with a passed init value.
 153:.\source\rte/sc_speed.h ****  * Depending on the configured conversion or scaling function the raw_value will be calculated.
 154:.\source\rte/sc_speed.h ****  * Signal status will change from RTE_SIGNALSTATUS_STARTUP to RTE_SIGNALSTATUS_INITIALIZED.
 155:.\source\rte/sc_speed.h ****  *
 156:.\source\rte/sc_speed.h ****  * @param  SC_SPEED_t * const signal: Pointer to the signal object which will be initialised
 157:.\source\rte/sc_speed.h ****  * @return RC_t: standard return code, currently only RC_SUCCESS
 158:.\source\rte/sc_speed.h ****  *
 159:.\source\rte/sc_speed.h ****  **/
 160:.\source\rte/sc_speed.h **** inline RC_t RTE_SC_SPEED_init( SC_SPEED_t * const signal )
 161:.\source\rte/sc_speed.h **** {                                                                                                  
 162:.\source\rte/sc_speed.h **** 
 163:.\source\rte/sc_speed.h ****    RC_t ret = RC_SUCCESS;
 164:.\source\rte/sc_speed.h **** 
 165:.\source\rte/sc_speed.h ****    //Set value and raw value
 166:.\source\rte/sc_speed.h ****    signal->value  = SC_SPEED_INIT_DATA;
 167:.\source\rte/sc_speed.h ****    signal->age    = 0;
 168:.\source\rte/sc_speed.h ****    signal->status = RTE_SIGNALSTATUS_INITIALIZED;
 169:.\source\rte/sc_speed.h **** 
 170:.\source\rte/sc_speed.h ****    return ret;
 171:.\source\rte/sc_speed.h **** }
ARM GAS  C:\Users\abhim\AppData\Local\Temp\ccwzVS1f.s 			page 11


 172:.\source\rte/sc_speed.h **** 
 173:.\source\rte/sc_speed.h **** /**************************************************************************************************
 174:.\source\rte/sc_speed.h **** /* Status and timeout control																						*/
 175:.\source\rte/sc_speed.h **** /**************************************************************************************************
 176:.\source\rte/sc_speed.h **** 
 177:.\source\rte/sc_speed.h **** /**
 178:.\source\rte/sc_speed.h ****  *  Returns the current signal status of the passed signal instance.
 179:.\source\rte/sc_speed.h ****  *
 180:.\source\rte/sc_speed.h ****  * @param  SC_SPEED_t * const signal: Pointer to the signal object
 181:.\source\rte/sc_speed.h ****  * @return  sig_status_t: The current signal status
 182:.\source\rte/sc_speed.h ****  *
 183:.\source\rte/sc_speed.h ****  **/
 184:.\source\rte/sc_speed.h **** inline RTE_signalStatus_t RTE_SC_SPEED_getStatus( const SC_SPEED_t * const signal )
 185:.\source\rte/sc_speed.h **** {
 186:.\source\rte/sc_speed.h ****    return signal->status;
 187:.\source\rte/sc_speed.h **** }
 188:.\source\rte/sc_speed.h **** 
 189:.\source\rte/sc_speed.h **** 
 190:.\source\rte/sc_speed.h **** /**
 191:.\source\rte/sc_speed.h ****  *  Sets a new signal status of the passed signal instance by passing the new status.
 192:.\source\rte/sc_speed.h ****  *
 193:.\source\rte/sc_speed.h ****  * @param  SC_SPEED_t * const signal: Pointer to the signal object
 194:.\source\rte/sc_speed.h ****  * @param  const sig_status_t status: New signal status
 195:.\source\rte/sc_speed.h ****  * @return RC_t: standard return code, currently only RC_SUCCESS
 196:.\source\rte/sc_speed.h ****  *
 197:.\source\rte/sc_speed.h ****  */
 198:.\source\rte/sc_speed.h **** inline RC_t RTE_SC_SPEED_setStatus( SC_SPEED_t * const signal, const RTE_signalStatus_t status )
 199:.\source\rte/sc_speed.h **** {
 200:.\source\rte/sc_speed.h ****    signal->status = status;
 201:.\source\rte/sc_speed.h ****    size_t taskNum=0;
 202:.\source\rte/sc_speed.h ****    
 203:.\source\rte/sc_speed.h ****    //Fire error events in case of invalid state
 204:.\source\rte/sc_speed.h ****    if (signal->status == RTE_SIGNALSTATUS_INVALID)
 205:.\source\rte/sc_speed.h ****    {
 206:.\source\rte/sc_speed.h **** 	    //Pointer to the Taskarray, containing the tasks receiving the onUpdate events
 207:.\source\rte/sc_speed.h **** 		TaskTypeArray* pTaskArray = signal->pSigCfg->onErrorTasks;
 208:.\source\rte/sc_speed.h **** 
 209:.\source\rte/sc_speed.h **** 		if (0 != signal->pSigCfg->evOnError && NULL != pTaskArray){
 210:.\source\rte/sc_speed.h **** 			for( taskNum=0 ; taskNum < signal->pSigCfg->onErrorTaskCount ;taskNum++){
 211:.\source\rte/sc_speed.h **** 				TaskType task = (*pTaskArray)[taskNum];
 212:.\source\rte/sc_speed.h **** 				SetEvent( task, signal->pSigCfg->evOnError);
 213:.\source\rte/sc_speed.h **** 			}
 214:.\source\rte/sc_speed.h **** 		}
 215:.\source\rte/sc_speed.h ****    }
 216:.\source\rte/sc_speed.h ****    
 217:.\source\rte/sc_speed.h ****    return RC_SUCCESS;
 218:.\source\rte/sc_speed.h **** }
 219:.\source\rte/sc_speed.h **** 
 220:.\source\rte/sc_speed.h **** 
 221:.\source\rte/sc_speed.h **** /**
 222:.\source\rte/sc_speed.h ****  * Returns the count of refreshing trials (refresh, set or set_raw) that failed.
 223:.\source\rte/sc_speed.h ****  * Prerquisite: The signal is refreshed cyclically
 224:.\source\rte/sc_speed.h ****  *
 225:.\source\rte/sc_speed.h ****  * @param  SC_SPEED_t * const signal: Pointer to the signal object
 226:.\source\rte/sc_speed.h ****  * @return uint32_t: Number of cycles since the signal has been updated for the last time
 227:.\source\rte/sc_speed.h ****  */
 228:.\source\rte/sc_speed.h **** inline uint32_t RTE_SC_SPEED_getAge( const SC_SPEED_t * const signal )
ARM GAS  C:\Users\abhim\AppData\Local\Temp\ccwzVS1f.s 			page 12


 229:.\source\rte/sc_speed.h **** {
 230:.\source\rte/sc_speed.h ****    return signal->age;
 231:.\source\rte/sc_speed.h **** }
 232:.\source\rte/sc_speed.h **** 
 233:.\source\rte/sc_speed.h **** /**
 234:.\source\rte/sc_speed.h ****  * Should be called by application or driver if no new value can be provided.
 235:.\source\rte/sc_speed.h ****  * @param  SC_SPEED_t * const signal: Pointer to the signal object
 236:.\source\rte/sc_speed.h ****  * @param uint32_t increment: incrementvalue, typically in [ms]
 237:.\source\rte/sc_speed.h ****  * @return void
 238:.\source\rte/sc_speed.h ****  */
 239:.\source\rte/sc_speed.h **** inline void RTE_SC_SPEED_incAge(  SC_SPEED_t * const signal , uint32_t increment)
 240:.\source\rte/sc_speed.h **** {
 241:.\source\rte/sc_speed.h **** 	   //Hack....
 242:.\source\rte/sc_speed.h **** 	   if ( 0xFFFF0000 > (signal->age + increment) )
 243:.\source\rte/sc_speed.h **** 	   {
 244:.\source\rte/sc_speed.h **** 	      signal->age += increment;
 245:.\source\rte/sc_speed.h **** 	   }
 246:.\source\rte/sc_speed.h **** }
 247:.\source\rte/sc_speed.h **** 
 248:.\source\rte/sc_speed.h **** 
 249:.\source\rte/sc_speed.h **** /**************************************************************************************************
 250:.\source\rte/sc_speed.h **** /* Application Data read/write Interface																			*/
 251:.\source\rte/sc_speed.h **** /**************************************************************************************************
 252:.\source\rte/sc_speed.h **** 
 253:.\source\rte/sc_speed.h **** /**
 254:.\source\rte/sc_speed.h ****  * Returns the current application value as pointer to the signal payload.
 255:.\source\rte/sc_speed.h ****  * Careful: This is not threadsafe!!!
 256:.\source\rte/sc_speed.h ****  *
 257:.\source\rte/sc_speed.h ****  * @param  SC_SPEED_t * const signal: Pointer to the signal object
 258:.\source\rte/sc_speed.h ****  * @return sc_speed_data_t*: pointer to the current value of the application data buffer
 259:.\source\rte/sc_speed.h ****  *
 260:.\source\rte/sc_speed.h ****  **/
 261:.\source\rte/sc_speed.h **** inline SC_SPEED_data_t* RTE_SC_SPEED_getPtr( SC_SPEED_t * const signal )
 262:.\source\rte/sc_speed.h **** {               
 263:.\source\rte/sc_speed.h ****    //Todo: Critical region cannot be protected using return values																						
 264:.\source\rte/sc_speed.h ****    return &(signal->value);                                                                        
 265:.\source\rte/sc_speed.h **** }
 266:.\source\rte/sc_speed.h **** 
 267:.\source\rte/sc_speed.h **** /**
 268:.\source\rte/sc_speed.h ****  * Returns the current application value of the passed signal instance.
 269:.\source\rte/sc_speed.h ****  *
 270:.\source\rte/sc_speed.h ****  * @param  SC_SPEED_t * const signal: Pointer to the signal object
 271:.\source\rte/sc_speed.h ****  * @return sc_speed_data_t: current value of the application data buffer
 272:.\source\rte/sc_speed.h ****  *
 273:.\source\rte/sc_speed.h ****  **/
 274:.\source\rte/sc_speed.h **** inline SC_SPEED_data_t RTE_SC_SPEED_get( const SC_SPEED_t * const signal )
 275:.\source\rte/sc_speed.h **** {               
 276:.\source\rte/sc_speed.h ****    //Todo: Critical region cannot be protected using return values																						
 277:.\source\rte/sc_speed.h ****    return signal->value;                                                                           
 278:.\source\rte/sc_speed.h **** }                                                                                                  
 279:.\source\rte/sc_speed.h ****                                                                                                    
 280:.\source\rte/sc_speed.h **** /**
 281:.\source\rte/sc_speed.h ****  * Returns the current application value of the passed signal instance threadsafe.
 282:.\source\rte/sc_speed.h ****  *
 283:.\source\rte/sc_speed.h ****  * @param  SC_SPEED_t * const signal: Pointer to the signal object
 284:.\source\rte/sc_speed.h ****  * @param  SC_SPEED_data_t* data: Pointer to the return data Pointer to the signal object
 285:.\source\rte/sc_speed.h ****  * @return RC_SUCCESS
ARM GAS  C:\Users\abhim\AppData\Local\Temp\ccwzVS1f.s 			page 13


 286:.\source\rte/sc_speed.h ****  *
 287:.\source\rte/sc_speed.h ****  **/
 288:.\source\rte/sc_speed.h **** inline RC_t RTE_SC_SPEED_getThreadSafe( const SC_SPEED_t * const signal, SC_SPEED_data_t * const da
 289:.\source\rte/sc_speed.h **** {    
 290:.\source\rte/sc_speed.h ****    if (TRUE == signal->pSigCfg->resourceActive) GetResource(signal->pSigCfg->resource);
 291:.\source\rte/sc_speed.h ****    *data = signal->value;
 292:.\source\rte/sc_speed.h ****    if (TRUE == signal->pSigCfg->resourceActive) ReleaseResource(signal->pSigCfg->resource);        
 293:.\source\rte/sc_speed.h **** 
 294:.\source\rte/sc_speed.h ****    return RC_SUCCESS;                                                                   
 295:.\source\rte/sc_speed.h ****    
 296:.\source\rte/sc_speed.h **** }                                                                                                  
 297:.\source\rte/sc_speed.h ****                                                                                                    
 298:.\source\rte/sc_speed.h **** /**
 299:.\source\rte/sc_speed.h ****  * Sets a new application value to the passed signal instance by passing the new value.
 300:.\source\rte/sc_speed.h ****  * The corresponding driver raw value will be calculated immediately by using the default conversio
 301:.\source\rte/sc_speed.h ****  * signal specific scaling function.
 302:.\source\rte/sc_speed.h ****  * The signal age will be set to 0 and the new status will be 'RTE_SIGNALSTATUS_VALID'.
 303:.\source\rte/sc_speed.h ****  *
 304:.\source\rte/sc_speed.h ****  * @param  SC_SPEED_t * const signal: Pointer to the signal object
 305:.\source\rte/sc_speed.h ****  * @param  sc_speed_data_t const value: value for the application data buffer
 306:.\source\rte/sc_speed.h ****  * @return RC_t: standard return code, currently only RC_SUCCESS
 307:.\source\rte/sc_speed.h ****  *
 308:.\source\rte/sc_speed.h ****  **/
 309:.\source\rte/sc_speed.h **** inline RC_t RTE_SC_SPEED_set(SC_SPEED_t * const signal, const SC_SPEED_data_t value  )
 310:.\source\rte/sc_speed.h **** {
 311:.\source\rte/sc_speed.h **** 
 312:.\source\rte/sc_speed.h ****    RC_t ret = RC_SUCCESS;
 313:.\source\rte/sc_speed.h ****    size_t taskNum=0;
 314:.\source\rte/sc_speed.h **** 
 315:.\source\rte/sc_speed.h **** 
 316:.\source\rte/sc_speed.h ****    if (TRUE == signal->pSigCfg->resourceActive) GetResource(signal->pSigCfg->resource);
  71              		.loc 3 316 0
  72 0022 0F4B     		ldr	r3, .L10+4
  73 0024 DA68     		ldr	r2, [r3, #12]
  74              	.LVL5:
 317:.\source\rte/sc_speed.h ****    signal->value  = value;
  75              		.loc 3 317 0
  76 0026 1960     		str	r1, [r3]
 318:.\source\rte/sc_speed.h ****    signal->age    = 0;
  77              		.loc 3 318 0
  78 0028 0021     		movs	r1, #0
  79              	.LVL6:
  80 002a 9960     		str	r1, [r3, #8]
 319:.\source\rte/sc_speed.h ****    signal->status = RTE_SIGNALSTATUS_VALID;
  81              		.loc 3 319 0
  82 002c 0221     		movs	r1, #2
  83 002e 1971     		strb	r1, [r3, #4]
 320:.\source\rte/sc_speed.h ****    if (TRUE == signal->pSigCfg->resourceActive) ReleaseResource(signal->pSigCfg->resource);
 321:.\source\rte/sc_speed.h **** 
 322:.\source\rte/sc_speed.h ****    //Pointer to the Taskarray, containing the tasks receiving the onUpdate events
 323:.\source\rte/sc_speed.h ****    TaskTypeArray* pTaskArray = signal->pSigCfg->onUpdateTasks;
  84              		.loc 3 323 0
  85 0030 5569     		ldr	r5, [r2, #20]
  86              	.LVL7:
 324:.\source\rte/sc_speed.h **** 
 325:.\source\rte/sc_speed.h ****    if (0 != signal->pSigCfg->evOnUpdate && NULL != pTaskArray){
  87              		.loc 3 325 0
ARM GAS  C:\Users\abhim\AppData\Local\Temp\ccwzVS1f.s 			page 14


  88 0032 9368     		ldr	r3, [r2, #8]
  89 0034 73B1     		cbz	r3, .L1
  90 0036 3DB9     		cbnz	r5, .L7
  91 0038 0CE0     		b	.L1
  92              	.LVL8:
  93              	.L6:
  94              	.LBB13:
 326:.\source\rte/sc_speed.h ****       for( taskNum=0 ; taskNum < signal->pSigCfg->onUpdateTaskCount ;taskNum++){
 327:.\source\rte/sc_speed.h **** 		  
 328:.\source\rte/sc_speed.h ****           TaskType task = (*pTaskArray)[taskNum];
 329:.\source\rte/sc_speed.h **** 	      SetEvent( task, signal->pSigCfg->evOnUpdate);
  95              		.loc 3 329 0
  96 003a 9968     		ldr	r1, [r3, #8]
  97 003c 55F82400 		ldr	r0, [r5, r4, lsl #2]
  98 0040 FFF7FEFF 		bl	EE_oo_SetEvent
  99              	.LVL9:
 100              	.LBE13:
 326:.\source\rte/sc_speed.h ****       for( taskNum=0 ; taskNum < signal->pSigCfg->onUpdateTaskCount ;taskNum++){
 101              		.loc 3 326 0
 102 0044 0134     		adds	r4, r4, #1
 103              	.LVL10:
 104 0046 00E0     		b	.L5
 105              	.LVL11:
 106              	.L7:
 325:.\source\rte/sc_speed.h ****       for( taskNum=0 ; taskNum < signal->pSigCfg->onUpdateTaskCount ;taskNum++){
 107              		.loc 3 325 0
 108 0048 0024     		movs	r4, #0
 109              	.LVL12:
 110              	.L5:
 326:.\source\rte/sc_speed.h ****       for( taskNum=0 ; taskNum < signal->pSigCfg->onUpdateTaskCount ;taskNum++){
 111              		.loc 3 326 0
 112 004a 054B     		ldr	r3, .L10+4
 113 004c DB68     		ldr	r3, [r3, #12]
 114 004e 1A69     		ldr	r2, [r3, #16]
 115 0050 9442     		cmp	r4, r2
 116 0052 F2D3     		bcc	.L6
 117              	.LVL13:
 118              	.L1:
 119              	.LBE12:
 120              	.LBE11:
 121              	.LBE8:
  52:source\bsw/swc_calc_control.c ****         }else if(joystickData.y <= 0) {
  53:source\bsw/swc_calc_control.c ****            speed.speedVal = 0;
  54:source\bsw/swc_calc_control.c ****         }
  55:source\bsw/swc_calc_control.c ****         else{
  56:source\bsw/swc_calc_control.c ****             //nothing
  57:source\bsw/swc_calc_control.c ****         }
  58:source\bsw/swc_calc_control.c ****         RC_t res = RTE_SC_SPEED_set(&SO_SPEED_signal,speed);
  59:source\bsw/swc_calc_control.c ****         if(res != RC_SUCCESS){
  60:source\bsw/swc_calc_control.c ****             UART_LOG_PutString("evOnSpeedUpdate not set by calcControl runnable");
  61:source\bsw/swc_calc_control.c ****         }
  62:source\bsw/swc_calc_control.c ****     }
  63:source\bsw/swc_calc_control.c ****     /* USER CODE END CALC_CONTROL_Calccontrol_calcControl_run */
  64:source\bsw/swc_calc_control.c **** }
 122              		.loc 1 64 0
 123 0054 03B0     		add	sp, sp, #12
 124              		.cfi_def_cfa_offset 12
ARM GAS  C:\Users\abhim\AppData\Local\Temp\ccwzVS1f.s 			page 15


 125              		@ sp needed
 126 0056 30BD     		pop	{r4, r5, pc}
 127              	.LVL14:
 128              	.L9:
 129              		.cfi_def_cfa_offset 0
 130              		.cfi_restore 4
 131              		.cfi_restore 5
 132              		.cfi_restore 14
 133 0058 7047     		bx	lr
 134              	.L11:
 135 005a 00BF     		.align	2
 136              	.L10:
 137 005c 00000000 		.word	SO_JOYSTICK_signal
 138 0060 00000000 		.word	SO_SPEED_signal
 139              		.cfi_endproc
 140              	.LFE132:
 141              		.size	CALC_CONTROL_Calccontrol_calcControl_run, .-CALC_CONTROL_Calccontrol_calcControl_run
 142              		.text
 143              	.Letext0:
 144              		.file 4 "c:\\program files (x86)\\cypress\\psoc creator\\4.4\\psoc creator\\import\\gnu\\arm\\5.4.
 145              		.file 5 "c:\\program files (x86)\\cypress\\psoc creator\\4.4\\psoc creator\\import\\gnu\\arm\\5.4.
 146              		.file 6 "c:\\program files (x86)\\cypress\\psoc creator\\4.4\\psoc creator\\import\\gnu\\arm\\5.4.
 147              		.file 7 "Generated_Source\\PSoC5/ErikaOS_common_ee_types.inc"
 148              		.file 8 "Generated_Source\\PSoC5/ErikaOS_cortex_mx_ee_cpu.inc"
 149              		.file 9 "Generated_Source\\PSoC5/ErikaOS_ee_oo_common.inc"
 150              		.file 10 "source\\bsw\\global.h"
 151              		.file 11 ".\\source\\rte/rte_types.h"
 152              		.file 12 ".\\source\\rte/rte.h"
 153              		.file 13 ".\\source\\rte/sc_speed_type.h"
 154              		.file 14 ".\\source\\rte/sc_joystick_type.h"
 155              		.file 15 "Generated_Source\\PSoC5/ErikaOS_ee_oo_intfunc.inc"
 156              		.file 16 "Generated_Source\\PSoC5/ErikaOS_cortex_mx_ee_context.inc"
 157              		.file 17 "Generated_Source\\PSoC5/ErikaOS_common_ee_primitives.inc"
 158              		.file 18 "Generated_Source\\PSoC5/core_cm3.h"
 159              		.file 19 ".\\source\\rte/sp_signalpool.h"
 160              		.file 20 "Generated_Source\\PSoC5/ErikaOS_ee_oo_kernel.inc"