ARM GAS  C:\Users\abhim\AppData\Local\Temp\ccFNPvlY.s 			page 1


   1              		.syntax unified
   2              		.cpu cortex-m3
   3              		.fpu softvfp
   4              		.eabi_attribute 20, 1
   5              		.eabi_attribute 21, 1
   6              		.eabi_attribute 23, 3
   7              		.eabi_attribute 24, 1
   8              		.eabi_attribute 25, 1
   9              		.eabi_attribute 26, 1
  10              		.eabi_attribute 30, 1
  11              		.eabi_attribute 34, 1
  12              		.eabi_attribute 18, 4
  13              		.thumb
  14              		.syntax unified
  15              		.file	"watchdog.c"
  16              		.text
  17              	.Ltext0:
  18              		.cfi_sections	.debug_frame
  19              		.section	.text.WD_Start,"ax",%progbits
  20              		.align	2
  21              		.global	WD_Start
  22              		.thumb
  23              		.thumb_func
  24              		.type	WD_Start, %function
  25              	WD_Start:
  26              	.LFB110:
  27              		.file 1 "watchdog.c"
   1:watchdog.c    **** /* ========================================
   2:watchdog.c    ****  *
   3:watchdog.c    ****  * Copyright YOUR COMPANY, THE YEAR
   4:watchdog.c    ****  * All Rights Reserved
   5:watchdog.c    ****  * UNPUBLISHED, LICENSED SOFTWARE.
   6:watchdog.c    ****  *
   7:watchdog.c    ****  * CONFIDENTIAL AND PROPRIETARY INFORMATION
   8:watchdog.c    ****  * WHICH IS THE PROPERTY OF your company.
   9:watchdog.c    ****  *
  10:watchdog.c    ****  * ========================================
  11:watchdog.c    **** */
  12:watchdog.c    **** 
  13:watchdog.c    **** /* [] END OF FILE */
  14:watchdog.c    **** #include "watchdog.h"
  15:watchdog.c    **** 
  16:watchdog.c    **** 
  17:watchdog.c    **** RC_t WD_Start(WDT_TimeOut_t timeout){
  28              		.loc 1 17 0
  29              		.cfi_startproc
  30              		@ args = 0, pretend = 0, frame = 0
  31              		@ frame_needed = 0, uses_anonymous_args = 0
  32              		@ link register save eliminated.
  33              	.LVL0:
  18:watchdog.c    ****     /* Set WDT interval */
  19:watchdog.c    ****     PM_WDT_CFG_REG = (PM_WDT_CFG_REG & ((uint8)(~WDT_CFG_INTRVL_MASK))) | (timeout & WDT_CFG_INTRVL
  34              		.loc 1 19 0
  35 0000 0A4B     		ldr	r3, .L2
  36 0002 1A78     		ldrb	r2, [r3]	@ zero_extendqisi2
  37 0004 02F0FC02 		and	r2, r2, #252
  38 0008 00F00300 		and	r0, r0, #3
ARM GAS  C:\Users\abhim\AppData\Local\Temp\ccFNPvlY.s 			page 2


  39              	.LVL1:
  40 000c 1043     		orrs	r0, r0, r2
  41 000e 1870     		strb	r0, [r3]
  20:watchdog.c    **** 
  21:watchdog.c    ****     /* Reset CTW to ensure that first watchdog period is full */
  22:watchdog.c    ****     PM_WDT_CFG_REG |= WDT_CFG_CTW_RESET;
  42              		.loc 1 22 0
  43 0010 1A78     		ldrb	r2, [r3]	@ zero_extendqisi2
  44 0012 42F08002 		orr	r2, r2, #128
  45 0016 1A70     		strb	r2, [r3]
  23:watchdog.c    ****     PM_WDT_CFG_REG &= ((uint8)(~WDT_CFG_CTW_RESET));   
  46              		.loc 1 23 0
  47 0018 1A78     		ldrb	r2, [r3]	@ zero_extendqisi2
  48 001a 02F07F02 		and	r2, r2, #127
  49 001e 1A70     		strb	r2, [r3]
  24:watchdog.c    ****     
  25:watchdog.c    ****     /* Enables watchdog reset */
  26:watchdog.c    ****     PM_WDT_CFG_REG |= WDT_CFG_WDR_EN;
  50              		.loc 1 26 0
  51 0020 1A78     		ldrb	r2, [r3]	@ zero_extendqisi2
  52 0022 42F01002 		orr	r2, r2, #16
  53 0026 1A70     		strb	r2, [r3]
  27:watchdog.c    ****     return RC_SUCCESS;
  28:watchdog.c    **** }
  54              		.loc 1 28 0
  55 0028 0020     		movs	r0, #0
  56 002a 7047     		bx	lr
  57              	.L3:
  58              		.align	2
  59              	.L2:
  60 002c 83430040 		.word	1073759107
  61              		.cfi_endproc
  62              	.LFE110:
  63              		.size	WD_Start, .-WD_Start
  64              		.section	.text.WD_trigger,"ax",%progbits
  65              		.align	2
  66              		.global	WD_trigger
  67              		.thumb
  68              		.thumb_func
  69              		.type	WD_trigger, %function
  70              	WD_trigger:
  71              	.LFB111:
  29:watchdog.c    **** 
  30:watchdog.c    **** RC_t WD_trigger(){
  72              		.loc 1 30 0
  73              		.cfi_startproc
  74              		@ args = 0, pretend = 0, frame = 0
  75              		@ frame_needed = 0, uses_anonymous_args = 0
  76              		@ link register save eliminated.
  77              	.LVL2:
  31:watchdog.c    ****     RC_t ret = RC_SUCCESS;
  32:watchdog.c    ****     if(WD_alive_Globalbitfield == 0x0fu){ //If the 4 runnables set the corresponding bit fields.
  78              		.loc 1 32 0
  79 0000 044B     		ldr	r3, .L6
  80 0002 1B78     		ldrb	r3, [r3]	@ zero_extendqisi2
  81 0004 0F2B     		cmp	r3, #15
  82 0006 02D1     		bne	.L5
ARM GAS  C:\Users\abhim\AppData\Local\Temp\ccFNPvlY.s 			page 3


  33:watchdog.c    ****         PM_WDT_CR_REG = WDT_CR_FEED; //Feeding the watchdog
  83              		.loc 1 33 0
  84 0008 0122     		movs	r2, #1
  85 000a 034B     		ldr	r3, .L6+4
  86 000c 1A70     		strb	r2, [r3]
  87              	.L5:
  34:watchdog.c    ****     }
  35:watchdog.c    ****     return ret;
  36:watchdog.c    **** }
  88              		.loc 1 36 0
  89 000e 0020     		movs	r0, #0
  90 0010 7047     		bx	lr
  91              	.L7:
  92 0012 00BF     		.align	2
  93              	.L6:
  94 0014 00000000 		.word	.LANCHOR0
  95 0018 84430040 		.word	1073759108
  96              		.cfi_endproc
  97              	.LFE111:
  98              		.size	WD_trigger, .-WD_trigger
  99              		.section	.text.WD_Alive,"ax",%progbits
 100              		.align	2
 101              		.global	WD_Alive
 102              		.thumb
 103              		.thumb_func
 104              		.type	WD_Alive, %function
 105              	WD_Alive:
 106              	.LFB112:
  37:watchdog.c    **** 
  38:watchdog.c    **** RC_t WD_Alive(uint8_t rnbl_bitPosn){
 107              		.loc 1 38 0
 108              		.cfi_startproc
 109              		@ args = 0, pretend = 0, frame = 0
 110              		@ frame_needed = 0, uses_anonymous_args = 0
 111              		@ link register save eliminated.
 112              	.LVL3:
  39:watchdog.c    ****     WD_alive_Globalbitfield |= (1u)<<rnbl_bitPosn;
 113              		.loc 1 39 0
 114 0000 0123     		movs	r3, #1
 115 0002 03FA00F0 		lsl	r0, r3, r0
 116              	.LVL4:
 117 0006 034A     		ldr	r2, .L9
 118 0008 1378     		ldrb	r3, [r2]	@ zero_extendqisi2
 119 000a 1843     		orrs	r0, r0, r3
 120 000c 1070     		strb	r0, [r2]
  40:watchdog.c    ****     return RC_SUCCESS;
  41:watchdog.c    **** }
 121              		.loc 1 41 0
 122 000e 0020     		movs	r0, #0
 123 0010 7047     		bx	lr
 124              	.L10:
 125 0012 00BF     		.align	2
 126              	.L9:
 127 0014 00000000 		.word	.LANCHOR0
 128              		.cfi_endproc
 129              	.LFE112:
 130              		.size	WD_Alive, .-WD_Alive
ARM GAS  C:\Users\abhim\AppData\Local\Temp\ccFNPvlY.s 			page 4


 131              		.section	.text.WD_CheckResetBit,"ax",%progbits
 132              		.align	2
 133              		.global	WD_CheckResetBit
 134              		.thumb
 135              		.thumb_func
 136              		.type	WD_CheckResetBit, %function
 137              	WD_CheckResetBit:
 138              	.LFB113:
  42:watchdog.c    **** 
  43:watchdog.c    **** boolean_t WD_CheckResetBit(){
 139              		.loc 1 43 0
 140              		.cfi_startproc
 141              		@ args = 0, pretend = 0, frame = 0
 142              		@ frame_needed = 0, uses_anonymous_args = 0
 143              		@ link register save eliminated.
  44:watchdog.c    ****     if(CyResetStatus & RESET_WD){
 144              		.loc 1 44 0
 145 0000 044B     		ldr	r3, .L13
 146 0002 1B78     		ldrb	r3, [r3]	@ zero_extendqisi2
 147 0004 03F00803 		and	r3, r3, #8
 148 0008 03F0FF00 		and	r0, r3, #255
 149 000c 03B1     		cbz	r3, .L12
  45:watchdog.c    ****         return true;
 150              		.loc 1 45 0
 151 000e 0120     		movs	r0, #1
 152              	.L12:
  46:watchdog.c    ****     }
  47:watchdog.c    ****     else{
  48:watchdog.c    ****         return false;
  49:watchdog.c    ****     }
  50:watchdog.c    **** }...
 153              		.loc 1 50 0
 154 0010 7047     		bx	lr
 155              	.L14:
 156 0012 00BF     		.align	2
 157              	.L13:
 158 0014 00000000 		.word	CyResetStatus
 159              		.cfi_endproc
 160              	.LFE113:
 161              		.size	WD_CheckResetBit, .-WD_CheckResetBit
 162              		.bss
 163              		.set	.LANCHOR0,. + 0
 164              		.type	WD_alive_Globalbitfield, %object
 165              		.size	WD_alive_Globalbitfield, 1
 166              	WD_alive_Globalbitfield:
 167 0000 00       		.space	1
 168              		.text
 169              	.Letext0:
 170              		.file 2 ".\\source\\bsw/global.h"
 171              		.file 3 "c:\\program files (x86)\\cypress\\psoc creator\\4.4\\psoc creator\\import\\gnu\\arm\\5.4.
 172              		.file 4 "c:\\program files (x86)\\cypress\\psoc creator\\4.4\\psoc creator\\import\\gnu\\arm\\5.4.
 173              		.file 5 "Generated_Source\\PSoC5/cytypes.h"
 174              		.file 6 "Generated_Source\\PSoC5/ErikaOS_common_ee_types.inc"
 175              		.file 7 "Generated_Source\\PSoC5/ErikaOS_cortex_mx_ee_cpu.inc"
 176              		.file 8 "watchdog.h"
 177              		.file 9 "Generated_Source\\PSoC5/ErikaOS_ee_oo_intfunc.inc"
 178              		.file 10 "Generated_Source\\PSoC5/ErikaOS_cortex_mx_ee_context.inc"
ARM GAS  C:\Users\abhim\AppData\Local\Temp\ccFNPvlY.s 			page 5


 179              		.file 11 "Generated_Source\\PSoC5/ErikaOS_common_ee_primitives.inc"
 180              		.file 12 "Generated_Source\\PSoC5/CyLib.h"
 181              		.file 13 "Generated_Source\\PSoC5/core_cm3.h"